TN:
SF:/home/atcsol/git/JOSE_PHOTOSAT/uah_photsat_freertos/service_libraries/edroomsl/edroomsl/include/edroomsl/edroomsl.h
FN:115,_ZN11CEDROOMPoolD0Ev
FNDA:0,_ZN11CEDROOMPoolD0Ev
FN:115,_ZN11CEDROOMPoolD2Ev
FNDA:0,_ZN11CEDROOMPoolD2Ev
FN:236,_ZN17CEDROOMMemoryPoolD0Ev
FNDA:0,_ZN17CEDROOMMemoryPoolD0Ev
FN:236,_ZN17CEDROOMMemoryPoolD2Ev
FNDA:0,_ZN17CEDROOMMemoryPoolD2Ev
FN:726,_ZN19CEDROOMMessagesPoolD0Ev
FNDA:0,_ZN19CEDROOMMessagesPoolD0Ev
FN:726,_ZN19CEDROOMMessagesPoolD2Ev
FNDA:5,_ZN19CEDROOMMessagesPoolD2Ev
FN:761,_ZN26CEDROOMTimeOutMessagesPoolD0Ev
FNDA:0,_ZN26CEDROOMTimeOutMessagesPoolD0Ev
FN:761,_ZN26CEDROOMTimeOutMessagesPoolD2Ev
FNDA:3,_ZN26CEDROOMTimeOutMessagesPoolD2Ev
FN:1812,_ZN16CEDROOMTXChannelD0Ev
FNDA:0,_ZN16CEDROOMTXChannelD0Ev
FN:1812,_ZN16CEDROOMTXChannelD2Ev
FNDA:0,_ZN16CEDROOMTXChannelD2Ev
FN:1883,_ZN21CEDROOMLocalTXChannelD0Ev
FNDA:0,_ZN21CEDROOMLocalTXChannelD0Ev
FN:1883,_ZN21CEDROOMLocalTXChannelD2Ev
FNDA:0,_ZN21CEDROOMLocalTXChannelD2Ev
DA:115,0
DA:115,0
DA:236,0
DA:236,0
DA:726,0
DA:726,5
DA:761,0
DA:761,3
DA:1812,0
DA:1812,0
DA:1883,0
DA:1883,0
end_of_record
SF:/home/atcsol/git/JOSE_PHOTOSAT/uah_photsat_freertos/asw/components/ccbkgtcexec/include/public/ccbkgtcexec_iface_v1.h
end_of_record
SF:/home/atcsol/git/JOSE_PHOTOSAT/uah_photsat_freertos/service_libraries/edroomsl/edroombp/include/public/edroombp.h
FN:122,_ZN9Pr_KernelD2Ev
FNDA:1,_ZN9Pr_KernelD2Ev
FN:192,_ZN12Pr_SemaphoreD2Ev
FNDA:0,_ZN12Pr_SemaphoreD2Ev
FN:261,_ZN15Pr_SemaphoreBinD2Ev
FNDA:0,_ZN15Pr_SemaphoreBinD2Ev
FN:533,_ZN7Pr_TaskD2Ev
FNDA:0,_ZN7Pr_TaskD2Ev
DA:122,1
DA:192,0
DA:194,0
DA:195,0
DA:261,0
DA:264,0
DA:533,0
DA:536,0
end_of_record
SF:/home/atcsol/git/JOSE_PHOTOSAT/uah_photsat_freertos/asw/edroom_glue/include/edroom_glue/edroomdeployment.h
end_of_record
SF:/home/atcsol/git/JOSE_PHOTOSAT/uah_photsat_freertos/asw/components/uahphotsat/include/public/uahphotsat_iface_v1.h
end_of_record
SF:/home/atcsol/git/JOSE_PHOTOSAT/uah_photsat_freertos/asw/edroom_glue/src/edroomdeployment.cpp
FN:11,_Z8MainWaitR10UAHPhotSatR11CCBKGTCExecR12CCHK_FDIRMngR11CCTCManagerR8CCObsMng
FNDA:1,_Z8MainWaitR10UAHPhotSatR11CCBKGTCExecR12CCHK_FDIRMngR11CCTCManagerR8CCObsMng
FN:36,_ZN19CEDROOMSystemMemory9SetMemoryEv
FNDA:1,_ZN19CEDROOMSystemMemory9SetMemoryEv
FN:53,_ZN20CEDROOMSystemCommSAP13SetComponentsEP10UAHPhotSatP11CCBKGTCExecP12CCHK_FDIRMngP11CCTCManagerP8CCObsMng
FNDA:1,_ZN20CEDROOMSystemCommSAP13SetComponentsEP10UAHPhotSatP11CCBKGTCExecP12CCHK_FDIRMngP11CCTCManagerP8CCObsMng
FN:73,_ZN20CEDROOMSystemCommSAP37C5ObsMng_PObsMng__C4TCManager_PObsMngEi
FNDA:0,_ZN20CEDROOMSystemCommSAP37C5ObsMng_PObsMng__C4TCManager_PObsMngEi
FN:86,_ZN20CEDROOMSystemCommSAP37C4TCManager_PObsMng__C5ObsMng_PObsMngEi
FNDA:4,_ZN20CEDROOMSystemCommSAP37C4TCManager_PObsMng__C5ObsMng_PObsMngEi
FN:101,_ZN20CEDROOMSystemCommSAP50C4TCManager_PBKGExecCtrl__C2BKGTCExec_PBKGExecCtrlEi
FNDA:0,_ZN20CEDROOMSystemCommSAP50C4TCManager_PBKGExecCtrl__C2BKGTCExec_PBKGExecCtrlEi
FN:116,_ZN20CEDROOMSystemCommSAP50C2BKGTCExec_PBKGExecCtrl__C4TCManager_PBKGExecCtrlEi
FNDA:0,_ZN20CEDROOMSystemCommSAP50C2BKGTCExec_PBKGExecCtrl__C4TCManager_PBKGExecCtrlEi
FN:129,_ZN20CEDROOMSystemCommSAP51C4TCManager_PHK_FDIRCtrl__C3HK_FDIRMng_PHK_FDIRCtrlEi
FNDA:6,_ZN20CEDROOMSystemCommSAP51C4TCManager_PHK_FDIRCtrl__C3HK_FDIRMng_PHK_FDIRCtrlEi
FN:144,_ZN20CEDROOMSystemCommSAP51C3HK_FDIRMng_PHK_FDIRCtrl__C4TCManager_PHK_FDIRCtrlEi
FNDA:2,_ZN20CEDROOMSystemCommSAP51C3HK_FDIRMng_PHK_FDIRCtrl__C4TCManager_PHK_FDIRCtrlEi
FN:164,_ZN20CEDROOMSystemCommSAP18RegisterInterfacesEv
FNDA:1,_ZN20CEDROOMSystemCommSAP18RegisterInterfacesEv
FN:193,_ZN20CEDROOMSystemCommSAP19SetLocalConnectionsEv
FNDA:1,_ZN20CEDROOMSystemCommSAP19SetLocalConnectionsEv
FN:213,_ZN20CEDROOMSystemCommSAP20SetRemoteConnectionsEv
FNDA:1,_ZN20CEDROOMSystemCommSAP20SetRemoteConnectionsEv
FN:220,_ZN20CEDROOMSystemCommSAP14SetConnectionsEv
FNDA:1,_ZN20CEDROOMSystemCommSAP14SetConnectionsEv
FN:230,_ZN23CEDROOMSystemDeploymentC2Ev
FNDA:1,_ZN23CEDROOMSystemDeploymentC2Ev
FN:241,_ZN23CEDROOMSystemDeployment6ConfigEP10UAHPhotSatP11CCBKGTCExecP12CCHK_FDIRMngP11CCTCManagerP8CCObsMng
FNDA:1,_ZN23CEDROOMSystemDeployment6ConfigEP10UAHPhotSatP11CCBKGTCExecP12CCHK_FDIRMngP11CCTCManagerP8CCObsMng
FN:267,_ZN23CEDROOMSystemDeployment15StartComponentsEv
FNDA:1,_ZN23CEDROOMSystemDeployment15StartComponentsEv
FN:279,_ZN23CEDROOMSystemDeployment5StartEv
FNDA:1,_ZN23CEDROOMSystemDeployment5StartEv
FN:313,_ZN23CEDROOMSystemDeployment9main_taskEv
FNDA:1,_ZN23CEDROOMSystemDeployment9main_taskEv
DA:11,1
DA:17,1
DA:30,20
DA:36,1
DA:38,1
DA:39,1
DA:40,1
DA:41,1
DA:42,1
DA:43,1
DA:44,1
DA:45,1
DA:46,1
DA:47,1
DA:48,1
DA:53,1
DA:58,1
DA:59,1
DA:60,1
DA:61,1
DA:62,1
DA:63,1
DA:73,0
DA:79,0
DA:82,0
DA:86,4
DA:90,4
DA:92,4
DA:94,0
DA:97,4
DA:101,0
DA:105,0
DA:107,0
DA:109,0
DA:112,0
DA:116,0
DA:122,0
DA:125,0
DA:129,6
DA:133,6
DA:135,6
DA:137,0
DA:140,6
DA:144,2
DA:148,2
DA:150,2
DA:152,0
DA:155,2
DA:164,1
DA:167,1
DA:170,1
DA:173,1
DA:174,1
DA:177,1
DA:178,1
DA:179,1
DA:180,1
DA:183,1
DA:184,1
DA:185,1
DA:187,1
DA:193,1
DA:195,1
DA:199,1
DA:203,1
DA:207,1
DA:213,1
DA:215,1
DA:220,1
DA:222,1
DA:223,1
DA:225,1
DA:230,1
DA:234,1
DA:236,1
DA:241,1
DA:247,1
DA:248,1
DA:249,1
DA:250,1
DA:251,1
DA:253,1
DA:259,1
DA:260,1
DA:262,1
DA:267,1
DA:268,1
DA:269,1
DA:270,1
DA:271,1
DA:272,1
DA:274,1
DA:279,1
DA:283,1
DA:285,1
DA:302,0
DA:313,1
DA:315,1
DA:316,1
DA:317,1
DA:318,1
DA:319,1
DA:320,1
DA:322,0
end_of_record
SF:/home/atcsol/git/JOSE_PHOTOSAT/uah_photsat_freertos/asw/components/ccobsmng/include/public/ccobsmng_iface_v1.h
end_of_record
SF:/home/atcsol/git/JOSE_PHOTOSAT/uah_photsat_freertos/asw/dataclasses/CDEvAction/include/public/cdevaction.h
FN:35,_ZN10CDEvActionC2Ev
FNDA:5,_ZN10CDEvActionC2Ev
DA:35,5
DA:36,5
DA:37,5
DA:38,5
end_of_record
SF:/home/atcsol/git/JOSE_PHOTOSAT/uah_photsat_freertos/asw/components/cctcmanager/include/public/cctcmanager_iface_v1.h
end_of_record
SF:/home/atcsol/git/JOSE_PHOTOSAT/uah_photsat_freertos/asw/components/cchk_fdirmng/include/public/cchk_fdirmng_iface_v1.h
end_of_record
TN:
SF:/home/atcsol/git/JOSE_PHOTOSAT/uah_photsat_freertos/asw/dataclasses/CDTCAcceptReport/include/public/cdtcacceptreport.h
FN:16,_ZN16CDTCAcceptReportC2Ev
FNDA:10,_ZN16CDTCAcceptReportC2Ev
DA:16,10
DA:17,10
DA:18,10
end_of_record
SF:/home/atcsol/git/JOSE_PHOTOSAT/uah_photsat_freertos/asw/dataclasses/CDTCHandler/src/cdtchandler.cpp
FN:16,_ZN11CDTCHandlerC2Ev
FNDA:17,_ZN11CDTCHandlerC2Ev
FN:23,_ZN11CDTCHandler19BuildFromDescriptorER17CDTCMemDescriptor
FNDA:9,_ZN11CDTCHandler19BuildFromDescriptorER17CDTCMemDescriptor
FN:29,_ZN11CDTCHandler13DoAcceptationEv
FNDA:9,_ZN11CDTCHandler13DoAcceptationEv
FN:37,_ZN11CDTCHandler14MngTCRejectionER16CDTCAcceptReport
FNDA:0,_ZN11CDTCHandler14MngTCRejectionER16CDTCAcceptReport
FN:45,_ZN11CDTCHandler16MngTCAcceptationEv
FNDA:9,_ZN11CDTCHandler16MngTCAcceptationEv
FN:51,_ZN11CDTCHandler11GetExecCtrlEv
FNDA:11,_ZN11CDTCHandler11GetExecCtrlEv
FN:98,_ZN11CDTCHandler6ExecTCEv
FNDA:11,_ZN11CDTCHandler6ExecTCEv
DA:16,17
DA:18,17
DA:19,17
DA:21,17
DA:23,9
DA:25,9
DA:27,9
DA:29,9
DA:31,9
DA:32,9
DA:34,9
DA:37,0
DA:39,0
DA:41,0
DA:42,0
DA:45,9
DA:47,9
DA:49,9
DA:51,11
DA:54,11
DA:57,11
DA:59,1
DA:61,1
DA:62,1
DA:64,4
DA:66,4
DA:67,4
DA:69,0
DA:72,0
DA:73,0
DA:75,6
DA:80,6
DA:81,6
DA:83,0
DA:85,0
DA:87,0
DA:88,0
DA:90,0
DA:91,0
DA:95,11
DA:98,11
DA:101,11
DA:103,11
DA:106,11
DA:108,11
DA:109,0
DA:110,0
DA:111,0
DA:112,0
DA:113,0
DA:114,0
DA:115,0
DA:116,0
DA:117,0
DA:118,0
DA:119,0
DA:120,0
DA:121,0
DA:122,0
DA:123,0
DA:125,0
DA:126,0
DA:127,0
DA:129,0
DA:130,0
DA:131,0
DA:132,4
DA:133,4
DA:134,4
DA:135,2
DA:136,2
DA:137,2
DA:138,0
DA:139,0
DA:141,0
DA:142,1
DA:143,1
DA:144,1
DA:145,4
DA:146,4
DA:147,4
DA:148,0
DA:150,0
DA:154,11
DA:157,11
end_of_record
TN:
SF:/home/atcsol/git/JOSE_PHOTOSAT/uah_photsat_freertos/asw/dataclasses/CDTCMemDescriptor/src/cdtcmemdescriptor.cpp
FN:12,_ZN17CDTCMemDescriptor9HandleIRQEv
FNDA:0,_ZN17CDTCMemDescriptor9HandleIRQEv
DA:12,0
DA:14,0
end_of_record
TN:
SF:/home/atcsol/git/JOSE_PHOTOSAT/uah_photsat_freertos/asw/dataclasses/CDEvAction/src/cdevaction.cpp
FN:11,_ZN10CDEvAction24ExtractEvActionFromQueueEv
FNDA:2,_ZN10CDEvAction24ExtractEvActionFromQueueEv
DA:11,2
DA:13,2
DA:15,2
DA:17,2
DA:21,2
end_of_record
TN:
SF:/home/atcsol/git/JOSE_PHOTOSAT/uah_photsat_freertos/service_libraries/edroomsl/edroombp/include/public/edroombp.h
FN:192,_ZN12Pr_SemaphoreD2Ev
FNDA:0,_ZN12Pr_SemaphoreD2Ev
FN:261,_ZN15Pr_SemaphoreBinD2Ev
FNDA:0,_ZN15Pr_SemaphoreBinD2Ev
FN:337,_ZN15Pr_SemaphoreRecD2Ev
FNDA:0,_ZN15Pr_SemaphoreRecD2Ev
FN:533,_ZN7Pr_TaskD2Ev
FNDA:0,_ZN7Pr_TaskD2Ev
DA:192,0
DA:194,0
DA:195,0
DA:261,0
DA:264,0
DA:337,0
DA:533,0
DA:536,0
end_of_record
SF:/home/atcsol/git/JOSE_PHOTOSAT/uah_photsat_freertos/service_libraries/edroomsl/edroomsl/include/edroomsl/edroomsl.h
FN:115,_ZN11CEDROOMPoolD0Ev
FNDA:0,_ZN11CEDROOMPoolD0Ev
FN:115,_ZN11CEDROOMPoolD2Ev
FNDA:0,_ZN11CEDROOMPoolD2Ev
FN:236,_ZN17CEDROOMMemoryPoolD0Ev
FNDA:0,_ZN17CEDROOMMemoryPoolD0Ev
FN:236,_ZN17CEDROOMMemoryPoolD2Ev
FNDA:0,_ZN17CEDROOMMemoryPoolD2Ev
FN:314,_ZN26CEDROOMProtectedMemoryPoolD0Ev
FNDA:0,_ZN26CEDROOMProtectedMemoryPoolD0Ev
FN:314,_ZN26CEDROOMProtectedMemoryPoolD2Ev
FNDA:0,_ZN26CEDROOMProtectedMemoryPoolD2Ev
DA:115,0
DA:115,0
DA:236,0
DA:236,0
DA:314,0
DA:314,0
end_of_record
SF:/home/atcsol/git/JOSE_PHOTOSAT/uah_photsat_freertos/asw/components/cchk_fdirmng/src/CCHK_FDIRMngS.cpp
FN:13,_ZN12CCHK_FDIRMngC2Ejj15TEDROOMPriorityjPNS_13CEDROOMMemoryE
FNDA:1,_ZN12CCHK_FDIRMngC2Ejj15TEDROOMPriorityjPNS_13CEDROOMMemoryE
FN:49,_ZN12CCHK_FDIRMng12EDROOMConfigEv
FNDA:0,_ZN12CCHK_FDIRMng12EDROOMConfigEv
FN:60,_ZN12CCHK_FDIRMng11EDROOMStartEv
FNDA:1,_ZN12CCHK_FDIRMng11EDROOMStartEv
FN:85,_ZN12CCHK_FDIRMng15EDROOMBehaviourEv
FNDA:1,_ZN12CCHK_FDIRMng15EDROOMBehaviourEv
FN:114,_ZN12CCHK_FDIRMng13CEDROOMMemory9SetMemoryEjP14CEDROOMMessagePbjPN12CEDROOMQueue10CQueueNodeES3_
FNDA:1,_ZN12CCHK_FDIRMng13CEDROOMMemory9SetMemoryEjP14CEDROOMMessagePbjPN12CEDROOMQueue10CQueueNodeES3_
DA:13,1
DA:17,1
DA:24,1
DA:28,1
DA:32,2
DA:38,1
DA:49,0
DA:53,0
DA:60,1
DA:66,1
DA:70,1
DA:72,1
DA:85,1
DA:88,1
DA:89,1
DA:91,0
DA:114,1
DA:122,1
DA:123,1
DA:125,1
DA:128,1
end_of_record
SF:/home/atcsol/git/JOSE_PHOTOSAT/uah_photsat_freertos/asw/components/cchk_fdirmng/include/public/cchk_fdirmng_iface_v1.h
end_of_record
TN:
SF:/home/atcsol/git/JOSE_PHOTOSAT/uah_photsat_freertos/asw/components/cchk_fdirmng/src/CCHK_FDIRMngB.cpp
FN:13,_ZN12CCHK_FDIRMng16EDROOM_CTX_Top_0C2ERS_R7Pr_TimeRNS0_21CEDROOMPOOLCDEvActionE
FNDA:1,_ZN12CCHK_FDIRMng16EDROOM_CTX_Top_0C2ERS_R7Pr_TimeRNS0_21CEDROOMPOOLCDEvActionE
FN:27,_ZN12CCHK_FDIRMng16EDROOM_CTX_Top_0C2ERS0_
FNDA:0,_ZN12CCHK_FDIRMng16EDROOM_CTX_Top_0C2ERS0_
FN:42,_ZN12CCHK_FDIRMng16EDROOM_CTX_Top_024EDROOMSearchContextTransER14TEDROOMTransId
FNDA:0,_ZN12CCHK_FDIRMng16EDROOM_CTX_Top_024EDROOMSearchContextTransER14TEDROOMTransId
FN:66,_ZN12CCHK_FDIRMng16EDROOM_CTX_Top_010FDoHK_FDIREv
FNDA:60,_ZN12CCHK_FDIRMng16EDROOM_CTX_Top_010FDoHK_FDIREv
FN:85,_ZN12CCHK_FDIRMng16EDROOM_CTX_Top_015FExecHK_FDIR_TCEv
FNDA:6,_ZN12CCHK_FDIRMng16EDROOM_CTX_Top_015FExecHK_FDIR_TCEv
FN:97,_ZN12CCHK_FDIRMng16EDROOM_CTX_Top_012FFwdEvActionEv
FNDA:2,_ZN12CCHK_FDIRMng16EDROOM_CTX_Top_012FFwdEvActionEv
FN:113,_ZN12CCHK_FDIRMng16EDROOM_CTX_Top_012FInitHK_FDIREv
FNDA:1,_ZN12CCHK_FDIRMng16EDROOM_CTX_Top_012FInitHK_FDIREv
FN:130,_ZN12CCHK_FDIRMng16EDROOM_CTX_Top_016GPendingEvActionEv
FNDA:60,_ZN12CCHK_FDIRMng16EDROOM_CTX_Top_016GPendingEvActionEv
FN:146,_ZN12CCHK_FDIRMng16EDROOM_CTX_Top_021CEDROOMPOOLCDEvActionC2EjP10CDEvActionPb
FNDA:1,_ZN12CCHK_FDIRMng16EDROOM_CTX_Top_021CEDROOMPOOLCDEvActionC2EjP10CDEvActionPb
FN:153,_ZN12CCHK_FDIRMng16EDROOM_CTX_Top_021CEDROOMPOOLCDEvAction9AllocDataEv
FNDA:2,_ZN12CCHK_FDIRMng16EDROOM_CTX_Top_021CEDROOMPOOLCDEvAction9AllocDataEv
FN:170,_ZN12CCHK_FDIRMng16EDROOM_SUB_Top_0C2ERS_PNS_13CEDROOMMemoryE
FNDA:1,_ZN12CCHK_FDIRMng16EDROOM_SUB_Top_0C2ERS_PNS_13CEDROOMMemoryE
FN:184,_ZN12CCHK_FDIRMng16EDROOM_SUB_Top_015EDROOMBehaviourEv
FNDA:1,_ZN12CCHK_FDIRMng16EDROOM_SUB_Top_015EDROOMBehaviourEv
FN:275,_ZN12CCHK_FDIRMng16EDROOM_SUB_Top_010EDROOMInitEv
FNDA:1,_ZN12CCHK_FDIRMng16EDROOM_SUB_Top_010EDROOMInitEv
FN:292,_ZN12CCHK_FDIRMng16EDROOM_SUB_Top_014EDROOMIArrivalEv
FNDA:1,_ZN12CCHK_FDIRMng16EDROOM_SUB_Top_014EDROOMIArrivalEv
FN:314,_ZN12CCHK_FDIRMng16EDROOM_SUB_Top_018EDROOMReadyArrivalEv
FNDA:67,_ZN12CCHK_FDIRMng16EDROOM_SUB_Top_018EDROOMReadyArrivalEv
DA:13,1
DA:15,1
DA:17,1
DA:18,1
DA:19,1
DA:20,1
DA:21,1
DA:22,1
DA:23,1
DA:25,1
DA:27,0
DA:29,0
DA:30,0
DA:31,0
DA:32,0
DA:33,0
DA:34,0
DA:35,0
DA:38,0
DA:42,0
DA:46,0
DA:48,0
DA:51,0
DA:53,0
DA:54,0
DA:55,0
DA:56,0
DA:60,0
DA:66,60
DA:70,60
DA:72,60
DA:73,60
DA:75,60
DA:76,60
DA:77,60
DA:78,60
DA:80,60
DA:81,60
DA:85,6
DA:89,6
DA:91,6
DA:93,6
DA:97,2
DA:101,2
DA:106,2
DA:108,2
DA:109,2
DA:113,1
DA:117,1
DA:119,1
DA:120,1
DA:121,1
DA:125,1
DA:126,1
DA:130,60
DA:135,60
DA:146,1
DA:147,1
DA:149,1
DA:151,1
DA:153,2
DA:155,2
DA:170,1
DA:171,1
DA:173,1
DA:174,1
DA:175,1
DA:176,1
DA:177,1
DA:180,1
DA:184,1
DA:191,1
DA:198,67
DA:202,1
DA:204,1
DA:206,1
DA:207,1
DA:209,6
DA:211,6
DA:213,6
DA:214,6
DA:216,60
DA:219,60
DA:221,60
DA:224,2
DA:227,2
DA:231,2
DA:238,58
DA:242,58
DA:244,60
DA:248,67
DA:252,0
DA:254,0
DA:255,0
DA:258,67
DA:260,67
DA:261,66
DA:265,66
DA:267,66
DA:269,0
DA:275,1
DA:278,1
DA:280,1
DA:292,1
DA:298,1
DA:299,1
DA:300,1
DA:314,67
DA:319,67
DA:324,67
DA:326,66
DA:329,6
DA:331,6
DA:335,6
DA:336,6
DA:337,6
DA:340,6
DA:342,60
DA:344,60
DA:348,60
DA:349,60
DA:350,60
DA:353,60
DA:357,66
DA:359,0
DA:363,66
DA:365,66
end_of_record
SF:/home/atcsol/git/JOSE_PHOTOSAT/uah_photsat_freertos/asw/components/cchk_fdirmng/include/public/cchk_fdirmng_iface_v1.h
FN:254,_ZN12CCHK_FDIRMng16EDROOM_CTX_Top_016EDROOMNewMessageEv
FNDA:67,_ZN12CCHK_FDIRMng16EDROOM_CTX_Top_016EDROOMNewMessageEv
DA:254,67
DA:255,67
end_of_record
SF:/home/atcsol/git/JOSE_PHOTOSAT/uah_photsat_freertos/service_libraries/edroomsl/edroomsl/include/edroomsl/edroomsl.h
FN:115,_ZN11CEDROOMPoolD0Ev
FNDA:0,_ZN11CEDROOMPoolD0Ev
FN:115,_ZN11CEDROOMPoolD2Ev
FNDA:0,_ZN11CEDROOMPoolD2Ev
FN:236,_ZN17CEDROOMMemoryPoolD0Ev
FNDA:0,_ZN17CEDROOMMemoryPoolD0Ev
FN:236,_ZN17CEDROOMMemoryPoolD2Ev
FNDA:0,_ZN17CEDROOMMemoryPoolD2Ev
FN:314,_ZN26CEDROOMProtectedMemoryPoolD0Ev
FNDA:0,_ZN26CEDROOMProtectedMemoryPoolD0Ev
FN:314,_ZN26CEDROOMProtectedMemoryPoolD2Ev
FNDA:0,_ZN26CEDROOMProtectedMemoryPoolD2Ev
DA:115,0
DA:115,0
DA:236,0
DA:236,0
DA:314,0
DA:314,0
end_of_record
SF:/home/atcsol/git/JOSE_PHOTOSAT/uah_photsat_freertos/service_libraries/edroomsl/edroombp/include/public/edroombp.h
FN:192,_ZN12Pr_SemaphoreD2Ev
FNDA:0,_ZN12Pr_SemaphoreD2Ev
FN:337,_ZN15Pr_SemaphoreRecD2Ev
FNDA:0,_ZN15Pr_SemaphoreRecD2Ev
DA:192,0
DA:194,0
DA:195,0
DA:337,0
end_of_record
TN:
SF:/home/atcsol/git/JOSE_PHOTOSAT/uah_photsat_freertos/asw/components/ccobsmng/include/public/ccobsmng_iface_v1.h
FN:243,_ZN8CCObsMng16EDROOM_CTX_Top_016EDROOMNewMessageEv
FNDA:605,_ZN8CCObsMng16EDROOM_CTX_Top_016EDROOMNewMessageEv
DA:243,605
DA:244,605
end_of_record
SF:/home/atcsol/git/JOSE_PHOTOSAT/uah_photsat_freertos/asw/components/ccobsmng/src/CCObsMngB.cpp
FN:13,_ZN8CCObsMng16EDROOM_CTX_Top_0C2ERS_R7Pr_Time
FNDA:1,_ZN8CCObsMng16EDROOM_CTX_Top_0C2ERS_R7Pr_Time
FN:27,_ZN8CCObsMng16EDROOM_CTX_Top_0C2ERS0_
FNDA:0,_ZN8CCObsMng16EDROOM_CTX_Top_0C2ERS0_
FN:43,_ZN8CCObsMng16EDROOM_CTX_Top_024EDROOMSearchContextTransER14TEDROOMTransId
FNDA:0,_ZN8CCObsMng16EDROOM_CTX_Top_024EDROOMSearchContextTransER14TEDROOMTransId
FN:67,_ZN8CCObsMng16EDROOM_CTX_Top_015FDoAttitudeCtrlEv
FNDA:600,_ZN8CCObsMng16EDROOM_CTX_Top_015FDoAttitudeCtrlEv
FN:77,_ZN8CCObsMng16EDROOM_CTX_Top_015FEndObservationEv
FNDA:0,_ZN8CCObsMng16EDROOM_CTX_Top_015FEndObservationEv
FN:90,_ZN8CCObsMng16EDROOM_CTX_Top_014FExecObsMng_TCEv
FNDA:4,_ZN8CCObsMng16EDROOM_CTX_Top_014FExecObsMng_TCEv
FN:103,_ZN8CCObsMng16EDROOM_CTX_Top_05FInitEv
FNDA:1,_ZN8CCObsMng16EDROOM_CTX_Top_05FInitEv
FN:122,_ZN8CCObsMng16EDROOM_CTX_Top_017FProgAttitudeCtrlEv
FNDA:600,_ZN8CCObsMng16EDROOM_CTX_Top_017FProgAttitudeCtrlEv
FN:138,_ZN8CCObsMng16EDROOM_CTX_Top_014FProgTakeImageEv
FNDA:0,_ZN8CCObsMng16EDROOM_CTX_Top_014FProgTakeImageEv
FN:150,_ZN8CCObsMng16EDROOM_CTX_Top_010FTakeImageEv
FNDA:0,_ZN8CCObsMng16EDROOM_CTX_Top_010FTakeImageEv
FN:160,_ZN8CCObsMng16EDROOM_CTX_Top_014FToObservationEv
FNDA:0,_ZN8CCObsMng16EDROOM_CTX_Top_014FToObservationEv
FN:170,_ZN8CCObsMng16EDROOM_CTX_Top_010GLastImageEv
FNDA:0,_ZN8CCObsMng16EDROOM_CTX_Top_010GLastImageEv
FN:180,_ZN8CCObsMng16EDROOM_CTX_Top_019GReadyToObservationEv
FNDA:600,_ZN8CCObsMng16EDROOM_CTX_Top_019GReadyToObservationEv
FN:204,_ZN8CCObsMng16EDROOM_SUB_Top_0C2ERS_
FNDA:1,_ZN8CCObsMng16EDROOM_SUB_Top_0C2ERS_
FN:213,_ZN8CCObsMng16EDROOM_SUB_Top_015EDROOMBehaviourEv
FNDA:1,_ZN8CCObsMng16EDROOM_SUB_Top_015EDROOMBehaviourEv
FN:345,_ZN8CCObsMng16EDROOM_SUB_Top_010EDROOMInitEv
FNDA:1,_ZN8CCObsMng16EDROOM_SUB_Top_010EDROOMInitEv
FN:362,_ZN8CCObsMng16EDROOM_SUB_Top_014EDROOMIArrivalEv
FNDA:1,_ZN8CCObsMng16EDROOM_SUB_Top_014EDROOMIArrivalEv
FN:384,_ZN8CCObsMng16EDROOM_SUB_Top_020EDROOMStandbyArrivalEv
FNDA:605,_ZN8CCObsMng16EDROOM_SUB_Top_020EDROOMStandbyArrivalEv
FN:449,_ZN8CCObsMng16EDROOM_SUB_Top_024EDROOMObservationArrivalEv
FNDA:0,_ZN8CCObsMng16EDROOM_SUB_Top_024EDROOMObservationArrivalEv
DA:13,1
DA:14,1
DA:16,1
DA:17,1
DA:18,1
DA:19,1
DA:20,1
DA:21,1
DA:22,1
DA:23,1
DA:25,1
DA:27,0
DA:29,0
DA:30,0
DA:31,0
DA:32,0
DA:33,0
DA:34,0
DA:35,0
DA:36,0
DA:39,0
DA:43,0
DA:47,0
DA:49,0
DA:52,0
DA:54,0
DA:55,0
DA:56,0
DA:57,0
DA:61,0
DA:67,600
DA:71,600
DA:73,600
DA:77,0
DA:83,0
DA:86,0
DA:90,4
DA:94,4
DA:97,4
DA:99,4
DA:103,1
DA:107,1
DA:112,1
DA:113,1
DA:117,1
DA:118,1
DA:122,600
DA:126,600
DA:130,600
DA:131,600
DA:133,600
DA:134,600
DA:138,0
DA:142,0
DA:143,0
DA:145,0
DA:146,0
DA:150,0
DA:154,0
DA:156,0
DA:160,0
DA:164,0
DA:166,0
DA:170,0
DA:174,0
DA:180,600
DA:184,600
DA:204,1
DA:206,1
DA:209,1
DA:213,1
DA:220,1
DA:227,605
DA:231,1
DA:233,1
DA:235,1
DA:236,1
DA:238,4
DA:240,4
DA:242,4
DA:243,4
DA:245,600
DA:248,600
DA:250,600
DA:253,0
DA:256,0
DA:260,0
DA:266,600
DA:269,600
DA:273,600
DA:275,600
DA:277,0
DA:280,0
DA:282,0
DA:285,0
DA:286,0
DA:289,0
DA:293,0
DA:300,0
DA:304,0
DA:306,0
DA:310,605
DA:314,0
DA:316,0
DA:317,0
DA:320,605
DA:322,605
DA:323,604
DA:326,0
DA:328,0
DA:330,0
DA:331,0
DA:335,604
DA:337,604
DA:339,0
DA:345,1
DA:348,1
DA:350,1
DA:362,1
DA:368,1
DA:369,1
DA:370,1
DA:384,605
DA:389,605
DA:394,605
DA:396,604
DA:399,4
DA:401,4
DA:405,4
DA:406,4
DA:407,4
DA:410,4
DA:412,600
DA:414,600
DA:418,600
DA:419,600
DA:420,600
DA:423,600
DA:427,604
DA:429,0
DA:433,604
DA:435,604
DA:449,0
DA:454,0
DA:459,0
DA:461,0
DA:464,0
DA:466,0
DA:470,0
DA:471,0
DA:472,0
DA:475,0
DA:479,0
DA:481,0
DA:485,0
DA:487,0
end_of_record
TN:
SF:/home/atcsol/git/JOSE_PHOTOSAT/uah_photsat_freertos/asw/components/ccobsmng/include/public/ccobsmng_iface_v1.h
end_of_record
SF:/home/atcsol/git/JOSE_PHOTOSAT/uah_photsat_freertos/asw/components/ccobsmng/src/CCObsMngS.cpp
FN:13,_ZN8CCObsMngC2Ejj15TEDROOMPriorityjPNS_13CEDROOMMemoryE
FNDA:1,_ZN8CCObsMngC2Ejj15TEDROOMPriorityjPNS_13CEDROOMMemoryE
FN:50,_ZN8CCObsMng12EDROOMConfigEv
FNDA:0,_ZN8CCObsMng12EDROOMConfigEv
FN:61,_ZN8CCObsMng11EDROOMStartEv
FNDA:1,_ZN8CCObsMng11EDROOMStartEv
FN:86,_ZN8CCObsMng15EDROOMBehaviourEv
FNDA:1,_ZN8CCObsMng15EDROOMBehaviourEv
FN:115,_ZN8CCObsMng13CEDROOMMemory9SetMemoryEjP14CEDROOMMessagePbjPN12CEDROOMQueue10CQueueNodeES3_
FNDA:1,_ZN8CCObsMng13CEDROOMMemory9SetMemoryEjP14CEDROOMMessagePbjPN12CEDROOMQueue10CQueueNodeES3_
DA:13,1
DA:17,1
DA:24,1
DA:28,1
DA:29,1
DA:33,2
DA:39,1
DA:50,0
DA:54,0
DA:61,1
DA:67,1
DA:71,1
DA:73,1
DA:86,1
DA:89,1
DA:90,1
DA:92,0
DA:115,1
DA:123,1
DA:124,1
DA:126,1
DA:129,1
end_of_record
SF:/home/atcsol/git/JOSE_PHOTOSAT/uah_photsat_freertos/service_libraries/edroomsl/edroomsl/include/edroomsl/edroomsl.h
end_of_record
SF:/home/atcsol/git/JOSE_PHOTOSAT/uah_photsat_freertos/service_libraries/edroomsl/edroombp/include/public/edroombp.h
FN:192,_ZN12Pr_SemaphoreD2Ev
FNDA:0,_ZN12Pr_SemaphoreD2Ev
FN:261,_ZN15Pr_SemaphoreBinD2Ev
FNDA:0,_ZN15Pr_SemaphoreBinD2Ev
FN:337,_ZN15Pr_SemaphoreRecD2Ev
FNDA:0,_ZN15Pr_SemaphoreRecD2Ev
FN:533,_ZN7Pr_TaskD2Ev
FNDA:0,_ZN7Pr_TaskD2Ev
DA:192,0
DA:194,0
DA:195,0
DA:261,0
DA:264,0
DA:337,0
DA:533,0
DA:536,0
end_of_record
TN:
SF:/home/atcsol/git/JOSE_PHOTOSAT/uah_photsat_freertos/asw/components/ccbkgtcexec/include/public/ccbkgtcexec_iface_v1.h
FN:195,_ZN11CCBKGTCExec16EDROOM_CTX_Top_016EDROOMNewMessageEv
FNDA:1,_ZN11CCBKGTCExec16EDROOM_CTX_Top_016EDROOMNewMessageEv
DA:195,1
DA:196,1
end_of_record
SF:/home/atcsol/git/JOSE_PHOTOSAT/uah_photsat_freertos/asw/components/ccbkgtcexec/src/CCBKGTCExecB.cpp
FN:13,_ZN11CCBKGTCExec16EDROOM_CTX_Top_0C2ERS_
FNDA:1,_ZN11CCBKGTCExec16EDROOM_CTX_Top_0C2ERS_
FN:22,_ZN11CCBKGTCExec16EDROOM_CTX_Top_0C2ERS0_
FNDA:0,_ZN11CCBKGTCExec16EDROOM_CTX_Top_0C2ERS0_
FN:34,_ZN11CCBKGTCExec16EDROOM_CTX_Top_024EDROOMSearchContextTransER14TEDROOMTransId
FNDA:0,_ZN11CCBKGTCExec16EDROOM_CTX_Top_024EDROOMSearchContextTransER14TEDROOMTransId
FN:58,_ZN11CCBKGTCExec16EDROOM_CTX_Top_010FExecBKGTCEv
FNDA:0,_ZN11CCBKGTCExec16EDROOM_CTX_Top_010FExecBKGTCEv
FN:87,_ZN11CCBKGTCExec16EDROOM_SUB_Top_0C2ERS_
FNDA:1,_ZN11CCBKGTCExec16EDROOM_SUB_Top_0C2ERS_
FN:95,_ZN11CCBKGTCExec16EDROOM_SUB_Top_015EDROOMBehaviourEv
FNDA:1,_ZN11CCBKGTCExec16EDROOM_SUB_Top_015EDROOMBehaviourEv
FN:154,_ZN11CCBKGTCExec16EDROOM_SUB_Top_010EDROOMInitEv
FNDA:1,_ZN11CCBKGTCExec16EDROOM_SUB_Top_010EDROOMInitEv
FN:171,_ZN11CCBKGTCExec16EDROOM_SUB_Top_014EDROOMIArrivalEv
FNDA:1,_ZN11CCBKGTCExec16EDROOM_SUB_Top_014EDROOMIArrivalEv
FN:193,_ZN11CCBKGTCExec16EDROOM_SUB_Top_018EDROOMReadyArrivalEv
FNDA:1,_ZN11CCBKGTCExec16EDROOM_SUB_Top_018EDROOMReadyArrivalEv
DA:13,1
DA:15,1
DA:16,1
DA:17,1
DA:18,1
DA:20,1
DA:22,0
DA:24,0
DA:25,0
DA:26,0
DA:27,0
DA:30,0
DA:34,0
DA:38,0
DA:40,0
DA:43,0
DA:45,0
DA:46,0
DA:47,0
DA:48,0
DA:52,0
DA:58,0
DA:62,0
DA:67,0
DA:69,0
DA:87,1
DA:88,1
DA:91,1
DA:95,1
DA:102,1
DA:109,1
DA:113,1
DA:115,1
DA:116,1
DA:118,0
DA:120,0
DA:122,0
DA:123,0
DA:127,1
DA:131,0
DA:133,0
DA:134,0
DA:137,1
DA:139,1
DA:140,0
DA:144,0
DA:146,0
DA:148,0
DA:154,1
DA:157,1
DA:159,1
DA:171,1
DA:177,1
DA:178,1
DA:179,1
DA:193,1
DA:198,1
DA:203,1
DA:205,0
DA:208,0
DA:210,0
DA:214,0
DA:215,0
DA:216,0
DA:219,0
DA:223,0
DA:225,0
DA:229,0
DA:231,0
end_of_record
TN:
SF:/home/atcsol/git/JOSE_PHOTOSAT/uah_photsat_freertos/asw/components/ccbkgtcexec/include/public/ccbkgtcexec_iface_v1.h
end_of_record
SF:/home/atcsol/git/JOSE_PHOTOSAT/uah_photsat_freertos/asw/components/ccbkgtcexec/src/CCBKGTCExecS.cpp
FN:13,_ZN11CCBKGTCExecC2Ejj15TEDROOMPriorityjPNS_13CEDROOMMemoryE
FNDA:1,_ZN11CCBKGTCExecC2Ejj15TEDROOMPriorityjPNS_13CEDROOMMemoryE
FN:41,_ZN11CCBKGTCExec12EDROOMConfigEv
FNDA:0,_ZN11CCBKGTCExec12EDROOMConfigEv
FN:52,_ZN11CCBKGTCExec11EDROOMStartEv
FNDA:1,_ZN11CCBKGTCExec11EDROOMStartEv
FN:73,_ZN11CCBKGTCExec15EDROOMBehaviourEv
FNDA:1,_ZN11CCBKGTCExec15EDROOMBehaviourEv
FN:102,_ZN11CCBKGTCExec13CEDROOMMemory9SetMemoryEjP14CEDROOMMessagePbjPN12CEDROOMQueue10CQueueNodeES3_
FNDA:1,_ZN11CCBKGTCExec13CEDROOMMemory9SetMemoryEjP14CEDROOMMessagePbjPN12CEDROOMQueue10CQueueNodeES3_
DA:13,1
DA:17,1
DA:24,1
DA:30,1
DA:41,0
DA:45,0
DA:52,1
DA:58,1
DA:60,1
DA:73,1
DA:76,1
DA:77,1
DA:79,0
DA:102,1
DA:110,1
DA:111,1
DA:114,1
end_of_record
TN:
SF:/home/atcsol/git/JOSE_PHOTOSAT/uah_photsat_freertos/asw/components/cctcmanager/src/CCTCManagerS.cpp
FN:25,_ZN11CCTCManager33EDROOMIRQ18HandlerTopHalfFunctionEv
FNDA:0,_ZN11CCTCManager33EDROOMIRQ18HandlerTopHalfFunctionEv
FN:47,_ZN11CCTCManager18EDROOMIRQ18HandlerEv
FNDA:0,_ZN11CCTCManager18EDROOMIRQ18HandlerEv
FN:57,_ZN11CCTCManager22EDROOMIRQ18IdleHandlerEv
FNDA:0,_ZN11CCTCManager22EDROOMIRQ18IdleHandlerEv
FN:65,_ZN11CCTCManager25EDROOMIRQ18BottomHalfTaskEv
FNDA:1,_ZN11CCTCManager25EDROOMIRQ18BottomHalfTaskEv
FN:126,_ZN11CCTCManagerC2Ejj15TEDROOMPriorityjPNS_13CEDROOMMemoryE
FNDA:1,_ZN11CCTCManagerC2Ejj15TEDROOMPriorityjPNS_13CEDROOMMemoryE
FN:158,_ZN11CCTCManager12EDROOMConfigEv
FNDA:0,_ZN11CCTCManager12EDROOMConfigEv
FN:169,_ZN11CCTCManager11EDROOMStartEv
FNDA:1,_ZN11CCTCManager11EDROOMStartEv
FN:190,_ZN11CCTCManager15EDROOMBehaviourEv
FNDA:1,_ZN11CCTCManager15EDROOMBehaviourEv
FN:223,_ZN11CCTCManager13CEDROOMMemory9SetMemoryEjP14CEDROOMMessagePbjPN12CEDROOMQueue10CQueueNodeES3_
FNDA:1,_ZN11CCTCManager13CEDROOMMemory9SetMemoryEjP14CEDROOMMessagePbjPN12CEDROOMQueue10CQueueNodeES3_
DA:25,0
DA:27,0
DA:38,0
DA:39,0
DA:41,0
DA:47,0
DA:49,0
DA:51,0
DA:57,0
DA:59,0
DA:65,1
DA:67,1
DA:72,10
DA:74,9
DA:76,9
DA:80,9
DA:84,9
DA:88,9
DA:90,9
DA:93,9
DA:95,9
DA:97,9
DA:100,9
DA:102,0
DA:104,9
DA:106,0
DA:126,1
DA:130,1
DA:137,1
DA:141,1
DA:147,1
DA:158,0
DA:162,0
DA:169,1
DA:175,1
DA:177,1
DA:190,1
DA:193,1
DA:194,1
DA:199,0
DA:200,0
DA:223,1
DA:231,1
DA:232,1
DA:235,1
end_of_record
SF:/home/atcsol/git/JOSE_PHOTOSAT/uah_photsat_freertos/service_libraries/edroomsl/edroomsl/include/edroomsl/edroomsl.h
FN:115,_ZN11CEDROOMPoolD0Ev
FNDA:0,_ZN11CEDROOMPoolD0Ev
FN:115,_ZN11CEDROOMPoolD2Ev
FNDA:0,_ZN11CEDROOMPoolD2Ev
FN:236,_ZN17CEDROOMMemoryPoolD0Ev
FNDA:0,_ZN17CEDROOMMemoryPoolD0Ev
FN:236,_ZN17CEDROOMMemoryPoolD2Ev
FNDA:0,_ZN17CEDROOMMemoryPoolD2Ev
FN:314,_ZN26CEDROOMProtectedMemoryPoolD0Ev
FNDA:0,_ZN26CEDROOMProtectedMemoryPoolD0Ev
FN:314,_ZN26CEDROOMProtectedMemoryPoolD2Ev
FNDA:0,_ZN26CEDROOMProtectedMemoryPoolD2Ev
DA:115,0
DA:115,0
DA:236,0
DA:236,0
DA:314,0
DA:314,0
end_of_record
SF:/home/atcsol/git/JOSE_PHOTOSAT/uah_photsat_freertos/service_libraries/edroomsl/edroombp/include/public/edroombp.h
FN:192,_ZN12Pr_SemaphoreD2Ev
FNDA:0,_ZN12Pr_SemaphoreD2Ev
FN:261,_ZN15Pr_SemaphoreBinD2Ev
FNDA:0,_ZN15Pr_SemaphoreBinD2Ev
FN:337,_ZN15Pr_SemaphoreRecD2Ev
FNDA:0,_ZN15Pr_SemaphoreRecD2Ev
FN:533,_ZN7Pr_TaskD2Ev
FNDA:0,_ZN7Pr_TaskD2Ev
DA:192,0
DA:194,0
DA:195,0
DA:261,0
DA:264,0
DA:337,0
DA:533,0
DA:536,0
end_of_record
SF:/home/atcsol/git/JOSE_PHOTOSAT/uah_photsat_freertos/asw/components/cctcmanager/include/public/cctcmanager_iface_v1.h
FN:141,_ZN11CCTCManager33CEDROOMPOOLIRQ18CDTCMemDescriptorC2Ev
FNDA:1,_ZN11CCTCManager33CEDROOMPOOLIRQ18CDTCMemDescriptorC2Ev
FN:143,_ZN11CCTCManager33CEDROOMPOOLIRQ18CDTCMemDescriptor9AllocDataEv
FNDA:9,_ZN11CCTCManager33CEDROOMPOOLIRQ18CDTCMemDescriptor9AllocDataEv
DA:141,1
DA:143,9
end_of_record
TN:
SF:/home/atcsol/git/JOSE_PHOTOSAT/uah_photsat_freertos/asw/components/cctcmanager/include/public/cctcmanager_iface_v1.h
FN:301,_ZN11CCTCManager16EDROOM_CTX_Top_016EDROOMNewMessageEv
FNDA:11,_ZN11CCTCManager16EDROOM_CTX_Top_016EDROOMNewMessageEv
DA:301,11
DA:302,11
end_of_record
SF:/home/atcsol/git/JOSE_PHOTOSAT/uah_photsat_freertos/asw/dataclasses/CDTCExecCtrl/include/public/cdtcexecctrl.h
FN:25,_ZN12CDTCExecCtrl10IsRebootTCEv
FNDA:11,_ZN12CDTCExecCtrl10IsRebootTCEv
FN:41,_ZN12CDTCExecCtrl11IsHK_FDIRTCEv
FNDA:10,_ZN12CDTCExecCtrl11IsHK_FDIRTCEv
FN:45,_ZN12CDTCExecCtrl10IsObservTCEv
FNDA:4,_ZN12CDTCExecCtrl10IsObservTCEv
FN:52,_ZN12CDTCExecCtrl7IsBKGTCEv
FNDA:4,_ZN12CDTCExecCtrl7IsBKGTCEv
DA:25,11
DA:41,10
DA:45,4
DA:52,4
end_of_record
SF:/home/atcsol/git/JOSE_PHOTOSAT/uah_photsat_freertos/asw/dataclasses/CDEvAction/include/public/cdevaction.h
FN:18,_ZN10CDEvAction18GetActionTCHandlerEv
FNDA:2,_ZN10CDEvAction18GetActionTCHandlerEv
DA:18,2
DA:20,2
end_of_record
SF:/home/atcsol/git/JOSE_PHOTOSAT/uah_photsat_freertos/asw/dataclasses/CDTCAcceptReport/include/public/cdtcacceptreport.h
FN:16,_ZN16CDTCAcceptReportC2Ev
FNDA:0,_ZN16CDTCAcceptReportC2Ev
FN:21,_ZN16CDTCAcceptReport10IsAcceptedEv
FNDA:9,_ZN16CDTCAcceptReport10IsAcceptedEv
DA:16,0
DA:17,0
DA:18,0
DA:21,9
DA:22,9
end_of_record
SF:/home/atcsol/git/JOSE_PHOTOSAT/uah_photsat_freertos/asw/components/cctcmanager/src/CCTCManagerB.cpp
FN:13,_ZN11CCTCManager16EDROOM_CTX_Top_0C2ERS_R16CDTCAcceptReportR11CDTCHandlerR12CDTCExecCtrlRNS0_22CEDROOMPOOLCDTCHandlerE
FNDA:1,_ZN11CCTCManager16EDROOM_CTX_Top_0C2ERS_R16CDTCAcceptReportR11CDTCHandlerR12CDTCExecCtrlRNS0_22CEDROOMPOOLCDTCHandlerE
FN:33,_ZN11CCTCManager16EDROOM_CTX_Top_0C2ERS0_
FNDA:0,_ZN11CCTCManager16EDROOM_CTX_Top_0C2ERS0_
FN:52,_ZN11CCTCManager16EDROOM_CTX_Top_024EDROOMSearchContextTransER14TEDROOMTransId
FNDA:0,_ZN11CCTCManager16EDROOM_CTX_Top_024EDROOMSearchContextTransER14TEDROOMTransId
FN:76,_ZN11CCTCManager16EDROOM_CTX_Top_07FExecTCEv
FNDA:1,_ZN11CCTCManager16EDROOM_CTX_Top_07FExecTCEv
FN:86,_ZN11CCTCManager16EDROOM_CTX_Top_013FFwdHK_FDIRTCEv
FNDA:6,_ZN11CCTCManager16EDROOM_CTX_Top_013FFwdHK_FDIRTCEv
FN:101,_ZN11CCTCManager16EDROOM_CTX_Top_015FFwdToBKGTCExecEv
FNDA:0,_ZN11CCTCManager16EDROOM_CTX_Top_015FFwdToBKGTCExecEv
FN:116,_ZN11CCTCManager16EDROOM_CTX_Top_014FFwdToObsMngTCEv
FNDA:4,_ZN11CCTCManager16EDROOM_CTX_Top_014FFwdToObsMngTCEv
FN:131,_ZN11CCTCManager16EDROOM_CTX_Top_012FGetEvActionEv
FNDA:2,_ZN11CCTCManager16EDROOM_CTX_Top_012FGetEvActionEv
FN:149,_ZN11CCTCManager16EDROOM_CTX_Top_06FGetTCEv
FNDA:9,_ZN11CCTCManager16EDROOM_CTX_Top_06FGetTCEv
FN:165,_ZN11CCTCManager16EDROOM_CTX_Top_05FInitEv
FNDA:1,_ZN11CCTCManager16EDROOM_CTX_Top_05FInitEv
FN:181,_ZN11CCTCManager16EDROOM_CTX_Top_017FMngTCAcceptationEv
FNDA:9,_ZN11CCTCManager16EDROOM_CTX_Top_017FMngTCAcceptationEv
FN:193,_ZN11CCTCManager16EDROOM_CTX_Top_015FMngTCRejectionEv
FNDA:0,_ZN11CCTCManager16EDROOM_CTX_Top_015FMngTCRejectionEv
FN:206,_ZN11CCTCManager16EDROOM_CTX_Top_07FRebootEv
FNDA:1,_ZN11CCTCManager16EDROOM_CTX_Top_07FRebootEv
FN:216,_ZN11CCTCManager16EDROOM_CTX_Top_011FTCExecCtrlEv
FNDA:11,_ZN11CCTCManager16EDROOM_CTX_Top_011FTCExecCtrlEv
FN:226,_ZN11CCTCManager16EDROOM_CTX_Top_09GAcceptTCEv
FNDA:9,_ZN11CCTCManager16EDROOM_CTX_Top_09GAcceptTCEv
FN:236,_ZN11CCTCManager16EDROOM_CTX_Top_010GFwdObsMngEv
FNDA:4,_ZN11CCTCManager16EDROOM_CTX_Top_010GFwdObsMngEv
FN:246,_ZN11CCTCManager16EDROOM_CTX_Top_015GFwdToBKGTCExecEv
FNDA:4,_ZN11CCTCManager16EDROOM_CTX_Top_015GFwdToBKGTCExecEv
FN:256,_ZN11CCTCManager16EDROOM_CTX_Top_013GFwdToHK_FDIREv
FNDA:10,_ZN11CCTCManager16EDROOM_CTX_Top_013GFwdToHK_FDIREv
FN:266,_ZN11CCTCManager16EDROOM_CTX_Top_09GToRebootEv
FNDA:11,_ZN11CCTCManager16EDROOM_CTX_Top_09GToRebootEv
FN:280,_ZN11CCTCManager16EDROOM_CTX_Top_022CEDROOMPOOLCDTCHandlerC2EjP11CDTCHandlerPb
FNDA:1,_ZN11CCTCManager16EDROOM_CTX_Top_022CEDROOMPOOLCDTCHandlerC2EjP11CDTCHandlerPb
FN:287,_ZN11CCTCManager16EDROOM_CTX_Top_022CEDROOMPOOLCDTCHandler9AllocDataEv
FNDA:10,_ZN11CCTCManager16EDROOM_CTX_Top_022CEDROOMPOOLCDTCHandler9AllocDataEv
FN:304,_ZN11CCTCManager16EDROOM_SUB_Top_0C2ERS_PNS_13CEDROOMMemoryE
FNDA:1,_ZN11CCTCManager16EDROOM_SUB_Top_0C2ERS_PNS_13CEDROOMMemoryE
FN:320,_ZN11CCTCManager16EDROOM_SUB_Top_015EDROOMBehaviourEv
FNDA:1,_ZN11CCTCManager16EDROOM_SUB_Top_015EDROOMBehaviourEv
FN:498,_ZN11CCTCManager16EDROOM_SUB_Top_010EDROOMInitEv
FNDA:1,_ZN11CCTCManager16EDROOM_SUB_Top_010EDROOMInitEv
FN:515,_ZN11CCTCManager16EDROOM_SUB_Top_014EDROOMIArrivalEv
FNDA:1,_ZN11CCTCManager16EDROOM_SUB_Top_014EDROOMIArrivalEv
FN:537,_ZN11CCTCManager16EDROOM_SUB_Top_020EDROOMValidTCArrivalEv
FNDA:11,_ZN11CCTCManager16EDROOM_SUB_Top_020EDROOMValidTCArrivalEv
FN:559,_ZN11CCTCManager16EDROOM_SUB_Top_018EDROOMReadyArrivalEv
FNDA:11,_ZN11CCTCManager16EDROOM_SUB_Top_018EDROOMReadyArrivalEv
FN:624,_ZN11CCTCManager16EDROOM_SUB_Top_019EDROOMRebootArrivalEv
FNDA:0,_ZN11CCTCManager16EDROOM_SUB_Top_019EDROOMRebootArrivalEv
DA:13,1
DA:17,1
DA:19,1
DA:20,1
DA:21,1
DA:22,1
DA:23,1
DA:24,1
DA:25,1
DA:26,1
DA:27,1
DA:28,1
DA:29,1
DA:31,1
DA:33,0
DA:35,0
DA:36,0
DA:37,0
DA:38,0
DA:39,0
DA:40,0
DA:41,0
DA:42,0
DA:43,0
DA:44,0
DA:45,0
DA:48,0
DA:52,0
DA:56,0
DA:58,0
DA:61,0
DA:63,0
DA:64,0
DA:65,0
DA:66,0
DA:70,0
DA:76,1
DA:80,1
DA:82,1
DA:86,6
DA:90,6
DA:94,6
DA:96,6
DA:97,6
DA:101,0
DA:105,0
DA:109,0
DA:111,0
DA:112,0
DA:116,4
DA:120,4
DA:124,4
DA:126,4
DA:127,4
DA:131,2
DA:135,2
DA:140,2
DA:145,2
DA:149,9
DA:153,9
DA:156,9
DA:159,9
DA:161,9
DA:165,1
DA:169,1
DA:171,1
DA:173,1
DA:175,1
DA:177,1
DA:181,9
DA:186,9
DA:189,9
DA:193,0
DA:199,0
DA:202,0
DA:206,1
DA:210,1
DA:212,0
DA:216,11
DA:220,11
DA:222,11
DA:226,9
DA:230,9
DA:236,4
DA:240,4
DA:246,4
DA:250,4
DA:256,10
DA:260,10
DA:266,11
DA:270,11
DA:280,1
DA:281,1
DA:283,1
DA:285,1
DA:287,10
DA:289,10
DA:304,1
DA:305,1
DA:307,1
DA:308,1
DA:309,1
DA:310,1
DA:311,1
DA:312,1
DA:313,1
DA:316,1
DA:320,1
DA:327,1
DA:334,23
DA:338,1
DA:340,1
DA:342,1
DA:343,1
DA:345,9
DA:348,9
DA:350,9
DA:353,9
DA:356,9
DA:360,9
DA:366,0
DA:369,0
DA:373,0
DA:375,9
DA:377,2
DA:379,2
DA:381,2
DA:382,2
DA:384,11
DA:387,11
DA:389,11
DA:392,1
DA:395,1
DA:399,1
DA:402,10
DA:405,6
DA:408,6
DA:412,6
DA:415,4
DA:418,0
DA:421,0
DA:425,0
DA:428,4
DA:431,4
DA:434,4
DA:438,4
DA:444,0
DA:447,0
DA:451,0
DA:453,11
DA:457,23
DA:461,0
DA:463,0
DA:464,0
DA:467,11
DA:469,11
DA:470,11
DA:473,1
DA:475,1
DA:477,0
DA:478,0
DA:481,11
DA:483,11
DA:484,11
DA:488,22
DA:490,22
DA:492,0
DA:498,1
DA:501,1
DA:503,1
DA:515,1
DA:521,1
DA:522,1
DA:523,1
DA:537,11
DA:543,11
DA:544,11
DA:545,11
DA:559,11
DA:564,11
DA:569,11
DA:571,11
DA:574,9
DA:576,9
DA:580,9
DA:581,9
DA:582,9
DA:585,9
DA:587,2
DA:589,2
DA:593,2
DA:594,2
DA:595,2
DA:598,2
DA:602,11
DA:604,0
DA:608,11
DA:610,11
DA:624,0
DA:629,0
DA:634,0
DA:636,0
DA:638,0
DA:642,0
DA:644,0
end_of_record
SF:/home/atcsol/git/JOSE_PHOTOSAT/uah_photsat_freertos/service_libraries/edroomsl/edroombp/include/public/edroombp.h
FN:192,_ZN12Pr_SemaphoreD2Ev
FNDA:0,_ZN12Pr_SemaphoreD2Ev
FN:337,_ZN15Pr_SemaphoreRecD2Ev
FNDA:0,_ZN15Pr_SemaphoreRecD2Ev
DA:192,0
DA:194,0
DA:195,0
DA:337,0
end_of_record
SF:/home/atcsol/git/JOSE_PHOTOSAT/uah_photsat_freertos/service_libraries/edroomsl/edroomsl/include/edroomsl/edroomsl.h
FN:115,_ZN11CEDROOMPoolD0Ev
FNDA:0,_ZN11CEDROOMPoolD0Ev
FN:115,_ZN11CEDROOMPoolD2Ev
FNDA:0,_ZN11CEDROOMPoolD2Ev
FN:236,_ZN17CEDROOMMemoryPoolD0Ev
FNDA:0,_ZN17CEDROOMMemoryPoolD0Ev
FN:236,_ZN17CEDROOMMemoryPoolD2Ev
FNDA:0,_ZN17CEDROOMMemoryPoolD2Ev
FN:314,_ZN26CEDROOMProtectedMemoryPoolD0Ev
FNDA:0,_ZN26CEDROOMProtectedMemoryPoolD0Ev
FN:314,_ZN26CEDROOMProtectedMemoryPoolD2Ev
FNDA:0,_ZN26CEDROOMProtectedMemoryPoolD2Ev
DA:115,0
DA:115,0
DA:236,0
DA:236,0
DA:314,0
DA:314,0
end_of_record
TN:
SF:/home/atcsol/git/JOSE_PHOTOSAT/uah_photsat_freertos/asw/components/uahphotsat/src/UAHPhotSatB.cpp
FN:13,_ZN10UAHPhotSat16EDROOM_CTX_Top_0C2ERS_R7Pr_Time
FNDA:1,_ZN10UAHPhotSat16EDROOM_CTX_Top_0C2ERS_R7Pr_Time
FN:24,_ZN10UAHPhotSat16EDROOM_CTX_Top_0C2ERS0_
FNDA:0,_ZN10UAHPhotSat16EDROOM_CTX_Top_0C2ERS0_
FN:37,_ZN10UAHPhotSat16EDROOM_CTX_Top_024EDROOMSearchContextTransER14TEDROOMTransId
FNDA:0,_ZN10UAHPhotSat16EDROOM_CTX_Top_024EDROOMSearchContextTransER14TEDROOMTransId
FN:61,_ZN10UAHPhotSat16EDROOM_CTX_Top_08FEmuInitEv
FNDA:1,_ZN10UAHPhotSat16EDROOM_CTX_Top_08FEmuInitEv
FN:81,_ZN10UAHPhotSat16EDROOM_CTX_Top_014FEmuRxTimeCodeEv
FNDA:60,_ZN10UAHPhotSat16EDROOM_CTX_Top_014FEmuRxTimeCodeEv
FN:93,_ZN10UAHPhotSat16EDROOM_CTX_Top_010FProgTimerEv
FNDA:60,_ZN10UAHPhotSat16EDROOM_CTX_Top_010FProgTimerEv
FN:123,_ZN10UAHPhotSat16EDROOM_SUB_Top_0C2ERS_
FNDA:1,_ZN10UAHPhotSat16EDROOM_SUB_Top_0C2ERS_
FN:132,_ZN10UAHPhotSat16EDROOM_SUB_Top_015EDROOMBehaviourEv
FNDA:1,_ZN10UAHPhotSat16EDROOM_SUB_Top_015EDROOMBehaviourEv
FN:195,_ZN10UAHPhotSat16EDROOM_SUB_Top_010EDROOMInitEv
FNDA:1,_ZN10UAHPhotSat16EDROOM_SUB_Top_010EDROOMInitEv
FN:212,_ZN10UAHPhotSat16EDROOM_SUB_Top_014EDROOMIArrivalEv
FNDA:1,_ZN10UAHPhotSat16EDROOM_SUB_Top_014EDROOMIArrivalEv
FN:234,_ZN10UAHPhotSat16EDROOM_SUB_Top_018EDROOMReadyArrivalEv
FNDA:60,_ZN10UAHPhotSat16EDROOM_SUB_Top_018EDROOMReadyArrivalEv
DA:13,1
DA:14,1
DA:16,1
DA:17,1
DA:18,1
DA:19,1
DA:20,1
DA:22,1
DA:24,0
DA:26,0
DA:27,0
DA:28,0
DA:29,0
DA:30,0
DA:33,0
DA:37,0
DA:41,0
DA:43,0
DA:46,0
DA:48,0
DA:49,0
DA:50,0
DA:51,0
DA:55,0
DA:61,1
DA:65,1
DA:67,1
DA:69,1
DA:71,1
DA:72,1
DA:74,1
DA:76,1
DA:77,1
DA:81,60
DA:86,60
DA:89,59
DA:93,60
DA:97,60
DA:100,60
DA:102,60
DA:104,60
DA:105,60
DA:123,1
DA:125,1
DA:128,1
DA:132,1
DA:139,1
DA:146,61
DA:150,1
DA:152,1
DA:154,1
DA:155,1
DA:157,60
DA:159,60
DA:161,59
DA:162,59
DA:166,60
DA:170,0
DA:172,0
DA:173,0
DA:176,60
DA:178,60
DA:180,60
DA:181,60
DA:185,60
DA:187,60
DA:189,0
DA:195,1
DA:198,1
DA:200,1
DA:212,1
DA:218,1
DA:219,1
DA:220,1
DA:234,60
DA:239,60
DA:244,60
DA:246,60
DA:249,60
DA:251,60
DA:255,60
DA:256,60
DA:257,60
DA:260,60
DA:264,60
DA:266,0
DA:270,60
DA:272,60
end_of_record
SF:/home/atcsol/git/JOSE_PHOTOSAT/uah_photsat_freertos/asw/components/uahphotsat/include/public/uahphotsat_iface_v1.h
FN:220,_ZN10UAHPhotSat16EDROOM_CTX_Top_016EDROOMNewMessageEv
FNDA:60,_ZN10UAHPhotSat16EDROOM_CTX_Top_016EDROOMNewMessageEv
DA:220,60
DA:221,60
end_of_record
TN:
SF:/home/atcsol/git/JOSE_PHOTOSAT/uah_photsat_freertos/service_libraries/edroomsl/edroomsl/include/edroomsl/edroomsl.h
end_of_record
SF:/home/atcsol/git/JOSE_PHOTOSAT/uah_photsat_freertos/service_libraries/edroomsl/edroombp/include/public/edroombp.h
FN:192,_ZN12Pr_SemaphoreD2Ev
FNDA:0,_ZN12Pr_SemaphoreD2Ev
FN:261,_ZN15Pr_SemaphoreBinD2Ev
FNDA:0,_ZN15Pr_SemaphoreBinD2Ev
FN:337,_ZN15Pr_SemaphoreRecD2Ev
FNDA:0,_ZN15Pr_SemaphoreRecD2Ev
FN:533,_ZN7Pr_TaskD2Ev
FNDA:0,_ZN7Pr_TaskD2Ev
DA:192,0
DA:194,0
DA:195,0
DA:261,0
DA:264,0
DA:337,0
DA:533,0
DA:536,0
end_of_record
SF:/home/atcsol/git/JOSE_PHOTOSAT/uah_photsat_freertos/asw/components/uahphotsat/include/public/uahphotsat_iface_v1.h
end_of_record
SF:/home/atcsol/git/JOSE_PHOTOSAT/uah_photsat_freertos/asw/components/uahphotsat/src/UAHPhotSatS.cpp
FN:13,_ZN10UAHPhotSatC2Ejj15TEDROOMPriorityjPNS_13CEDROOMMemoryE
FNDA:1,_ZN10UAHPhotSatC2Ejj15TEDROOMPriorityjPNS_13CEDROOMMemoryE
FN:49,_ZN10UAHPhotSat12EDROOMConfigEv
FNDA:0,_ZN10UAHPhotSat12EDROOMConfigEv
FN:60,_ZN10UAHPhotSat11EDROOMStartEv
FNDA:1,_ZN10UAHPhotSat11EDROOMStartEv
FN:85,_ZN10UAHPhotSat15EDROOMBehaviourEv
FNDA:1,_ZN10UAHPhotSat15EDROOMBehaviourEv
FN:114,_ZN10UAHPhotSat13CEDROOMMemory9SetMemoryEjP14CEDROOMMessagePbjPN12CEDROOMQueue10CQueueNodeES3_
FNDA:1,_ZN10UAHPhotSat13CEDROOMMemory9SetMemoryEjP14CEDROOMMessagePbjPN12CEDROOMQueue10CQueueNodeES3_
DA:13,1
DA:17,1
DA:24,1
DA:28,1
DA:32,2
DA:38,1
DA:49,0
DA:53,0
DA:60,1
DA:66,1
DA:70,1
DA:72,1
DA:85,1
DA:88,1
DA:89,1
DA:91,0
DA:114,1
DA:122,1
DA:123,1
DA:125,1
DA:128,1
end_of_record
TN:
SF:/home/atcsol/git/JOSE_PHOTOSAT/uah_photsat_freertos/asw/components/cctcmanager/include/public/cctcmanager_iface_v1.h
end_of_record
SF:/home/atcsol/git/JOSE_PHOTOSAT/uah_photsat_freertos/asw/components/cchk_fdirmng/include/public/cchk_fdirmng_iface_v1.h
end_of_record
SF:/home/atcsol/git/JOSE_PHOTOSAT/uah_photsat_freertos/asw/components/ccobsmng/include/public/ccobsmng_iface_v1.h
end_of_record
SF:/home/atcsol/git/JOSE_PHOTOSAT/uah_photsat_freertos/uahphotsat_mmesp_project.cpp
FN:25,main
FNDA:1,main
DA:25,1
DA:36,1
DA:37,1
DA:38,1
DA:39,1
DA:40,1
DA:42,1
DA:44,1
DA:46,0
DA:48,0
end_of_record
SF:/home/atcsol/git/JOSE_PHOTOSAT/uah_photsat_freertos/asw/edroom_glue/include/edroom_glue/edroomdeployment.h
FN:164,_ZN23CEDROOMSystemDeployment14GetComp1MemoryEv
FNDA:1,_ZN23CEDROOMSystemDeployment14GetComp1MemoryEv
FN:165,_ZN23CEDROOMSystemDeployment14GetComp2MemoryEv
FNDA:1,_ZN23CEDROOMSystemDeployment14GetComp2MemoryEv
FN:166,_ZN23CEDROOMSystemDeployment14GetComp3MemoryEv
FNDA:1,_ZN23CEDROOMSystemDeployment14GetComp3MemoryEv
FN:167,_ZN23CEDROOMSystemDeployment14GetComp4MemoryEv
FNDA:1,_ZN23CEDROOMSystemDeployment14GetComp4MemoryEv
FN:168,_ZN23CEDROOMSystemDeployment14GetComp5MemoryEv
FNDA:1,_ZN23CEDROOMSystemDeployment14GetComp5MemoryEv
DA:164,1
DA:165,1
DA:166,1
DA:167,1
DA:168,1
end_of_record
SF:/home/atcsol/git/JOSE_PHOTOSAT/uah_photsat_freertos/asw/components/uahphotsat/include/public/uahphotsat_iface_v1.h
end_of_record
SF:/home/atcsol/git/JOSE_PHOTOSAT/uah_photsat_freertos/service_libraries/edroomsl/edroombp/include/public/edroombp.h
FN:122,_ZN9Pr_KernelD2Ev
FNDA:0,_ZN9Pr_KernelD2Ev
FN:192,_ZN12Pr_SemaphoreD2Ev
FNDA:0,_ZN12Pr_SemaphoreD2Ev
FN:261,_ZN15Pr_SemaphoreBinD2Ev
FNDA:0,_ZN15Pr_SemaphoreBinD2Ev
FN:337,_ZN15Pr_SemaphoreRecD2Ev
FNDA:0,_ZN15Pr_SemaphoreRecD2Ev
FN:533,_ZN7Pr_TaskD2Ev
FNDA:0,_ZN7Pr_TaskD2Ev
DA:122,0
DA:192,0
DA:194,0
DA:195,0
DA:261,0
DA:264,0
DA:337,0
DA:533,0
DA:536,0
end_of_record
SF:/home/atcsol/git/JOSE_PHOTOSAT/uah_photsat_freertos/service_libraries/edroomsl/edroomsl/include/edroomsl/edroomsl.h
FN:115,_ZN11CEDROOMPoolD0Ev
FNDA:0,_ZN11CEDROOMPoolD0Ev
FN:115,_ZN11CEDROOMPoolD2Ev
FNDA:0,_ZN11CEDROOMPoolD2Ev
FN:236,_ZN17CEDROOMMemoryPoolD0Ev
FNDA:0,_ZN17CEDROOMMemoryPoolD0Ev
FN:236,_ZN17CEDROOMMemoryPoolD2Ev
FNDA:0,_ZN17CEDROOMMemoryPoolD2Ev
FN:314,_ZN26CEDROOMProtectedMemoryPoolD0Ev
FNDA:0,_ZN26CEDROOMProtectedMemoryPoolD0Ev
FN:314,_ZN26CEDROOMProtectedMemoryPoolD2Ev
FNDA:0,_ZN26CEDROOMProtectedMemoryPoolD2Ev
FN:726,_ZN19CEDROOMMessagesPoolD0Ev
FNDA:0,_ZN19CEDROOMMessagesPoolD0Ev
FN:726,_ZN19CEDROOMMessagesPoolD2Ev
FNDA:0,_ZN19CEDROOMMessagesPoolD2Ev
FN:761,_ZN26CEDROOMTimeOutMessagesPoolD0Ev
FNDA:0,_ZN26CEDROOMTimeOutMessagesPoolD0Ev
FN:761,_ZN26CEDROOMTimeOutMessagesPoolD2Ev
FNDA:0,_ZN26CEDROOMTimeOutMessagesPoolD2Ev
FN:1812,_ZN16CEDROOMTXChannelD0Ev
FNDA:0,_ZN16CEDROOMTXChannelD0Ev
FN:1812,_ZN16CEDROOMTXChannelD2Ev
FNDA:0,_ZN16CEDROOMTXChannelD2Ev
FN:1883,_ZN21CEDROOMLocalTXChannelD0Ev
FNDA:0,_ZN21CEDROOMLocalTXChannelD0Ev
FN:1883,_ZN21CEDROOMLocalTXChannelD2Ev
FNDA:0,_ZN21CEDROOMLocalTXChannelD2Ev
DA:115,0
DA:115,0
DA:236,0
DA:236,0
DA:314,0
DA:314,0
DA:726,0
DA:726,0
DA:761,0
DA:761,0
DA:1812,0
DA:1812,0
DA:1883,0
DA:1883,0
end_of_record
SF:/home/atcsol/git/JOSE_PHOTOSAT/uah_photsat_freertos/asw/components/ccbkgtcexec/include/public/ccbkgtcexec_iface_v1.h
end_of_record
TN:
SF:/home/atcsol/git/JOSE_PHOTOSAT/uah_photsat_freertos/llsw/emu_gss/src/emu_gss_pus_service20.cpp
FN:39,_ZN20EmuGSS_TCProgram20_1C2EjPKct
FNDA:0,_ZN20EmuGSS_TCProgram20_1C2EjPKct
FN:48,_ZN20EmuGSS_TCProgram20_114BuildTCAppDataER17tc_mem_descriptor
FNDA:0,_ZN20EmuGSS_TCProgram20_114BuildTCAppDataER17tc_mem_descriptor
FN:55,_ZN26EmuGSS_TCProgram20_3_uint8C2EjPKcth
FNDA:0,_ZN26EmuGSS_TCProgram20_3_uint8C2EjPKcth
FN:66,_ZN26EmuGSS_TCProgram20_3_uint814BuildTCAppDataER17tc_mem_descriptor
FNDA:0,_ZN26EmuGSS_TCProgram20_3_uint814BuildTCAppDataER17tc_mem_descriptor
FN:75,_ZN27EmuGSS_TCProgram20_3_uint32C2EjPKctj
FNDA:0,_ZN27EmuGSS_TCProgram20_3_uint32C2EjPKctj
FN:86,_ZN27EmuGSS_TCProgram20_3_uint3214BuildTCAppDataER17tc_mem_descriptor
FNDA:0,_ZN27EmuGSS_TCProgram20_3_uint3214BuildTCAppDataER17tc_mem_descriptor
FN:95,_Z19EmuGSS_ShowServ20TMPK17tm_mem_descriptor
FNDA:0,_Z19EmuGSS_ShowServ20TMPK17tm_mem_descriptor
FN:102,_ZN18GSSServ20TMHandlerC2EPKh
FNDA:0,_ZN18GSSServ20TMHandlerC2EPKh
FN:107,_ZN18GSSServ20TMHandler6ShowTMEv
FNDA:0,_ZN18GSSServ20TMHandler6ShowTMEv
FN:117,_ZN18GSSServ20TMHandler11ShowTM_20_2Ev
FNDA:0,_ZN18GSSServ20TMHandler11ShowTM_20_2Ev
DA:39,0
DA:40,0
DA:42,0
DA:44,0
DA:45,0
DA:46,0
DA:48,0
DA:50,0
DA:51,0
DA:53,0
DA:55,0
DA:56,0
DA:58,0
DA:60,0
DA:61,0
DA:63,0
DA:64,0
DA:66,0
DA:69,0
DA:70,0
DA:71,0
DA:73,0
DA:75,0
DA:76,0
DA:78,0
DA:80,0
DA:81,0
DA:83,0
DA:84,0
DA:86,0
DA:89,0
DA:90,0
DA:91,0
DA:93,0
DA:95,0
DA:97,0
DA:98,0
DA:100,0
DA:102,0
DA:103,0
DA:105,0
DA:107,0
DA:109,0
DA:110,0
DA:111,0
DA:112,0
DA:115,0
DA:117,0
DA:122,0
DA:124,0
DA:126,0
DA:128,0
DA:132,0
DA:133,0
DA:134,0
DA:138,0
DA:139,0
DA:140,0
DA:144,0
DA:145,0
DA:147,0
DA:149,0
DA:150,0
DA:153,0
end_of_record
TN:
SF:/home/atcsol/git/JOSE_PHOTOSAT/uah_photsat_freertos/llsw/emu_gss/src/emu_gss_pus_service09.cpp
FN:33,_ZN21EmuGSS_TCProgram9_129C2EjPKcj
FNDA:0,_ZN21EmuGSS_TCProgram9_129C2EjPKcj
FN:43,_ZN21EmuGSS_TCProgram9_12914BuildTCAppDataER17tc_mem_descriptor
FNDA:0,_ZN21EmuGSS_TCProgram9_12914BuildTCAppDataER17tc_mem_descriptor
DA:33,0
DA:35,0
DA:37,0
DA:39,0
DA:40,0
DA:41,0
DA:43,0
DA:45,0
DA:47,0
end_of_record
TN:
SF:/home/atcsol/git/JOSE_PHOTOSAT/uah_photsat_freertos/llsw/emu_gss/src/emu_gss_pus_service02.cpp
FN:34,_ZN19EmuGSS_TCProgram2_1C2EjPKc20DeviceCommandOnOff_t
FNDA:0,_ZN19EmuGSS_TCProgram2_1C2EjPKc20DeviceCommandOnOff_t
FN:48,_ZN19EmuGSS_TCProgram2_1C2E20DeviceCommandOnOff_t
FNDA:0,_ZN19EmuGSS_TCProgram2_1C2E20DeviceCommandOnOff_t
FN:63,_ZN19EmuGSS_TCProgram2_114BuildTCAppDataER17tc_mem_descriptor
FNDA:0,_ZN19EmuGSS_TCProgram2_114BuildTCAppDataER17tc_mem_descriptor
FN:73,_ZN30EmuGSS_TCProgram2_1_BadAddressC2EjPKcj
FNDA:0,_ZN30EmuGSS_TCProgram2_1_BadAddressC2EjPKcj
FN:83,_ZN30EmuGSS_TCProgram2_1_BadAddress14BuildTCAppDataER17tc_mem_descriptor
FNDA:0,_ZN30EmuGSS_TCProgram2_1_BadAddress14BuildTCAppDataER17tc_mem_descriptor
DA:34,0
DA:35,0
DA:37,0
DA:39,0
DA:40,0
DA:42,0
DA:44,0
DA:45,0
DA:48,0
DA:50,0
DA:52,0
DA:54,0
DA:55,0
DA:57,0
DA:61,0
DA:63,0
DA:66,0
DA:68,0
DA:70,0
DA:73,0
DA:74,0
DA:76,0
DA:78,0
DA:80,0
DA:81,0
DA:83,0
DA:86,0
DA:88,0
DA:90,0
end_of_record
TN:
SF:/home/atcsol/git/JOSE_PHOTOSAT/uah_photsat_freertos/llsw/emu_gss/src/emu_gss_tc_program.cpp
FN:39,_ZN16EmuGSS_TCProgram21GetCurrentTCProgramedEv
FNDA:9,_ZN16EmuGSS_TCProgram21GetCurrentTCProgramedEv
FN:45,_ZN16EmuGSS_TCProgramC2EjhhtPKc
FNDA:10,_ZN16EmuGSS_TCProgramC2EjhhtPKc
FN:58,_ZN16EmuGSS_TCProgram21SetCurrentTCProgramedEj
FNDA:69,_ZN16EmuGSS_TCProgram21SetCurrentTCProgramedEj
FN:70,_ZN16EmuGSS_TCProgram10NewProgramEPS_
FNDA:9,_ZN16EmuGSS_TCProgram10NewProgramEPS_
FN:104,_ZN16EmuGSS_TCProgram7BuildTCER17tc_mem_descriptor
FNDA:10,_ZN16EmuGSS_TCProgram7BuildTCER17tc_mem_descriptor
FN:123,_ZN16EmuGSS_TCProgram16DisableAcceptACKEv
FNDA:0,_ZN16EmuGSS_TCProgram16DisableAcceptACKEv
FN:128,_ZN16EmuGSS_TCProgram19DisableExecStartACKEv
FNDA:0,_ZN16EmuGSS_TCProgram19DisableExecStartACKEv
FN:132,_ZN16EmuGSS_TCProgram18DisableExecProgACKEv
FNDA:0,_ZN16EmuGSS_TCProgram18DisableExecProgACKEv
FN:136,_ZN16EmuGSS_TCProgram24DisableExecCompletionACKEv
FNDA:0,_ZN16EmuGSS_TCProgram24DisableExecCompletionACKEv
FN:142,_ZN16EmuGSS_TCProgram17BuildTCPackHeaderER17tc_mem_descriptor
FNDA:10,_ZN16EmuGSS_TCProgram17BuildTCPackHeaderER17tc_mem_descriptor
FN:166,_ZN16EmuGSS_TCProgram15BuildTCDFHeaderER17tc_mem_descriptor
FNDA:10,_ZN16EmuGSS_TCProgram15BuildTCDFHeaderER17tc_mem_descriptor
FN:176,_ZN16EmuGSS_TCProgram12SetNextUInt8Eh
FNDA:30,_ZN16EmuGSS_TCProgram12SetNextUInt8Eh
FN:181,_ZN16EmuGSS_TCProgram13SetNextUInt16Et
FNDA:10,_ZN16EmuGSS_TCProgram13SetNextUInt16Et
FN:186,_ZN16EmuGSS_TCProgram13SetNextUInt32Ej
FNDA:0,_ZN16EmuGSS_TCProgram13SetNextUInt32Ej
FN:190,_ZN16EmuGSS_TCProgram13SetNextUInt64Em
FNDA:0,_ZN16EmuGSS_TCProgram13SetNextUInt64Em
FN:195,_ZN16EmuGSS_TCProgram11SetNextInt8Ea
FNDA:0,_ZN16EmuGSS_TCProgram11SetNextInt8Ea
FN:199,_ZN16EmuGSS_TCProgram12SetNextInt16Es
FNDA:2,_ZN16EmuGSS_TCProgram12SetNextInt16Es
FN:204,_ZN16EmuGSS_TCProgram12SetNextInt32Ei
FNDA:0,_ZN16EmuGSS_TCProgram12SetNextInt32Ei
FN:208,_ZN16EmuGSS_TCProgram12SetNextInt64El
FNDA:0,_ZN16EmuGSS_TCProgram12SetNextInt64El
FN:213,_ZN16EmuGSS_TCProgram12SetNextFloatERf
FNDA:3,_ZN16EmuGSS_TCProgram12SetNextFloatERf
DA:39,9
DA:41,9
DA:45,10
DA:46,10
DA:48,10
DA:49,10
DA:50,10
DA:51,10
DA:52,10
DA:53,10
DA:54,10
DA:55,10
DA:56,10
DA:58,69
DA:59,69
DA:60,69
DA:61,68
DA:62,9
DA:63,9
DA:64,9
DA:67,69
DA:70,9
DA:71,9
DA:73,9
DA:74,1
DA:75,1
DA:77,8
DA:79,8
DA:80,8
DA:81,44
DA:82,36
DA:83,0
DA:84,0
DA:86,0
DA:88,0
DA:89,0
DA:91,36
DA:92,36
DA:93,36
DA:94,8
DA:95,8
DA:96,8
DA:102,9
DA:104,10
DA:106,10
DA:108,10
DA:109,10
DA:110,10
DA:111,10
DA:113,10
DA:114,10
DA:115,10
DA:117,10
DA:118,10
DA:121,10
DA:123,0
DA:125,0
DA:127,0
DA:128,0
DA:130,0
DA:131,0
DA:132,0
DA:134,0
DA:135,0
DA:136,0
DA:138,0
DA:139,0
DA:142,10
DA:144,10
DA:145,10
DA:147,10
DA:150,10
DA:152,10
DA:153,10
DA:155,10
DA:158,10
DA:161,10
DA:165,10
DA:166,10
DA:168,10
DA:169,10
DA:170,10
DA:171,10
DA:172,10
DA:174,10
DA:176,30
DA:177,30
DA:178,30
DA:179,30
DA:181,10
DA:182,10
DA:183,10
DA:184,10
DA:186,0
DA:187,0
DA:188,0
DA:189,0
DA:190,0
DA:191,0
DA:192,0
DA:193,0
DA:195,0
DA:196,0
DA:197,0
DA:198,0
DA:199,2
DA:200,2
DA:201,2
DA:202,2
DA:204,0
DA:205,0
DA:206,0
DA:207,0
DA:208,0
DA:209,0
DA:210,0
DA:211,0
DA:213,3
DA:215,3
DA:216,3
DA:217,3
DA:218,3
end_of_record
TN:
SF:/home/atcsol/git/JOSE_PHOTOSAT/uah_photsat_freertos/llsw/emu_gss/src/emu_gss_tm_handler.cpp
FN:39,_ZN12GSSTMHandler10GetPUSTypeEPK17tm_mem_descriptor
FNDA:100,_ZN12GSSTMHandler10GetPUSTypeEPK17tm_mem_descriptor
FN:49,_ZN12GSSTMHandler13GetPUSSubtypeEPK17tm_mem_descriptor
FNDA:100,_ZN12GSSTMHandler13GetPUSSubtypeEPK17tm_mem_descriptor
FN:60,_ZN12GSSTMHandlerC2EPKh
FNDA:100,_ZN12GSSTMHandlerC2EPKh
FN:76,_ZN12GSSTMHandler24GetNextUInt8AppDataFieldEv
FNDA:222,_ZN12GSSTMHandler24GetNextUInt8AppDataFieldEv
FN:84,_ZN12GSSTMHandler25GetNextUInt16AppDataFieldEv
FNDA:137,_ZN12GSSTMHandler25GetNextUInt16AppDataFieldEv
FN:92,_ZN12GSSTMHandler25GetNextUInt32AppDataFieldEv
FNDA:6,_ZN12GSSTMHandler25GetNextUInt32AppDataFieldEv
FN:101,_ZN12GSSTMHandler25GetNextUInt64AppDataFieldEv
FNDA:0,_ZN12GSSTMHandler25GetNextUInt64AppDataFieldEv
FN:110,_ZN12GSSTMHandler23GetNextInt8AppDataFieldEv
FNDA:0,_ZN12GSSTMHandler23GetNextInt8AppDataFieldEv
FN:118,_ZN12GSSTMHandler24GetNextInt16AppDataFieldEv
FNDA:240,_ZN12GSSTMHandler24GetNextInt16AppDataFieldEv
FN:127,_ZN12GSSTMHandler24GetNextInt32AppDataFieldEv
FNDA:0,_ZN12GSSTMHandler24GetNextInt32AppDataFieldEv
FN:136,_ZN12GSSTMHandler24GetNextInt64AppDataFieldEv
FNDA:0,_ZN12GSSTMHandler24GetNextInt64AppDataFieldEv
DA:39,100
DA:41,100
DA:42,100
DA:43,100
DA:45,100
DA:49,100
DA:52,100
DA:53,100
DA:54,100
DA:56,100
DA:60,100
DA:62,100
DA:63,100
DA:64,100
DA:66,100
DA:67,100
DA:68,100
DA:70,100
DA:72,100
DA:74,100
DA:76,222
DA:79,222
DA:80,222
DA:81,222
DA:84,137
DA:87,137
DA:88,137
DA:89,137
DA:92,6
DA:95,6
DA:96,6
DA:97,6
DA:101,0
DA:104,0
DA:105,0
DA:106,0
DA:110,0
DA:112,0
DA:113,0
DA:114,0
DA:118,240
DA:121,240
DA:122,240
DA:123,240
DA:127,0
DA:130,0
DA:131,0
DA:132,0
DA:136,0
DA:139,0
DA:140,0
DA:141,0
end_of_record
TN:
SF:/home/atcsol/git/JOSE_PHOTOSAT/uah_photsat_freertos/llsw/emu_gss/include/emu_gss/emu_gss_tc_program.h
FN:48,_ZN16EmuGSS_TCProgram7GetTypeEv
FNDA:9,_ZN16EmuGSS_TCProgram7GetTypeEv
FN:49,_ZN16EmuGSS_TCProgram10GetSubtypeEv
FNDA:9,_ZN16EmuGSS_TCProgram10GetSubtypeEv
FN:50,_ZN16EmuGSS_TCProgram8GetBriefEv
FNDA:9,_ZN16EmuGSS_TCProgram8GetBriefEv
DA:48,9
DA:49,9
DA:50,9
end_of_record
SF:/home/atcsol/git/JOSE_PHOTOSAT/uah_photsat_freertos/llsw/emu_gss/src/emu_gss.cpp
FN:38,_Z13EmuGSS_ShowTMPK17tm_mem_descriptor
FNDA:100,_Z13EmuGSS_ShowTMPK17tm_mem_descriptor
FN:78,_Z22EmuGSS_PrintCurrentOBTv
FNDA:61,_Z22EmuGSS_PrintCurrentOBTv
FN:84,_Z17EmuGSS_PassSecondv
FNDA:60,_Z17EmuGSS_PassSecondv
FN:94,_Z18EmuGSS_RxCurrentTCP17CDTCMemDescriptor
FNDA:0,_Z18EmuGSS_RxCurrentTCP17CDTCMemDescriptor
FN:100,_Z24EmuGSS_SendProgrammedTCsv
FNDA:60,_Z24EmuGSS_SendProgrammedTCsv
DA:38,100
DA:42,100
DA:43,100
DA:45,100
DA:47,100
DA:49,31
DA:51,31
DA:53,31
DA:55,60
DA:56,60
DA:57,60
DA:59,0
DA:60,0
DA:61,0
DA:63,3
DA:64,3
DA:65,3
DA:66,6
DA:67,6
DA:68,6
DA:69,0
DA:70,0
DA:71,0
DA:74,100
DA:76,100
DA:78,61
DA:80,61
DA:82,61
DA:84,60
DA:88,60
DA:90,60
DA:92,59
DA:94,0
DA:98,0
DA:100,60
DA:102,60
DA:104,60
DA:105,69
DA:107,9
DA:108,9
DA:109,9
DA:111,9
DA:112,9
DA:117,9
DA:119,9
DA:121,9
DA:123,9
DA:125,9
DA:130,60
DA:132,9
DA:136,59
end_of_record
TN:
SF:/home/atcsol/git/JOSE_PHOTOSAT/uah_photsat_freertos/llsw/emu_gss/src/emu_gss_pus_service01.cpp
FN:34,_Z18EmuGSS_ShowServ1TMPK17tm_mem_descriptor
FNDA:31,_Z18EmuGSS_ShowServ1TMPK17tm_mem_descriptor
FN:41,_ZN17GSSServ1TMHandlerC2EPKh
FNDA:31,_ZN17GSSServ1TMHandlerC2EPKh
FN:46,_ZN17GSSServ1TMHandler6ShowTMEv
FNDA:31,_ZN17GSSServ1TMHandler6ShowTMEv
FN:66,_ZN17GSSServ1TMHandler10ShowTM_1_2Ev
FNDA:0,_ZN17GSSServ1TMHandler10ShowTM_1_2Ev
FN:101,_ZN17GSSServ1TMHandler10ShowTM_1_4Ev
FNDA:0,_ZN17GSSServ1TMHandler10ShowTM_1_4Ev
FN:202,_ZN17GSSServ1TMHandler10ShowTM_1_8Ev
FNDA:0,_ZN17GSSServ1TMHandler10ShowTM_1_8Ev
DA:34,31
DA:36,31
DA:37,31
DA:39,31
DA:41,31
DA:42,31
DA:44,31
DA:46,31
DA:49,31
DA:52,31
DA:54,31
DA:55,0
DA:56,0
DA:57,0
DA:58,0
DA:59,0
DA:60,0
DA:61,0
DA:62,0
DA:63,0
DA:65,31
DA:66,0
DA:68,0
DA:69,0
DA:70,0
DA:72,0
DA:73,0
DA:75,0
DA:77,0
DA:78,0
DA:80,0
DA:82,0
DA:83,0
DA:85,0
DA:87,0
DA:89,0
DA:91,0
DA:93,0
DA:95,0
DA:99,0
DA:101,0
DA:103,0
DA:104,0
DA:105,0
DA:107,0
DA:108,0
DA:110,0
DA:112,0
DA:113,0
DA:115,0
DA:117,0
DA:119,0
DA:121,0
DA:123,0
DA:125,0
DA:126,0
DA:128,0
DA:129,0
DA:133,0
DA:135,0
DA:136,0
DA:138,0
DA:140,0
DA:142,0
DA:144,0
DA:146,0
DA:148,0
DA:149,0
DA:151,0
DA:153,0
DA:155,0
DA:157,0
DA:159,0
DA:160,0
DA:162,0
DA:164,0
DA:166,0
DA:168,0
DA:170,0
DA:172,0
DA:174,0
DA:176,0
DA:178,0
DA:180,0
DA:182,0
DA:184,0
DA:186,0
DA:187,0
DA:189,0
DA:191,0
DA:192,0
DA:194,0
DA:195,0
DA:197,0
DA:202,0
DA:204,0
DA:205,0
DA:207,0
DA:209,0
DA:210,0
DA:212,0
DA:214,0
DA:215,0
DA:217,0
DA:219,0
DA:220,0
DA:222,0
DA:224,0
DA:226,0
DA:228,0
DA:230,0
DA:231,0
DA:233,0
DA:235,0
DA:237,0
DA:239,0
DA:241,0
DA:243,0
DA:247,0
DA:248,0
DA:251,0
end_of_record
TN:
SF:/home/atcsol/git/JOSE_PHOTOSAT/uah_photsat_freertos/llsw/emu_gss/src/emu_gss_pus_service12.cpp
FN:41,_ZN20EmuGSS_TCProgram12_1C2EjPKct
FNDA:2,_ZN20EmuGSS_TCProgram12_1C2EjPKct
FN:50,_ZN20EmuGSS_TCProgram12_114BuildTCAppDataER17tc_mem_descriptor
FNDA:2,_ZN20EmuGSS_TCProgram12_114BuildTCAppDataER17tc_mem_descriptor
FN:57,_ZN20EmuGSS_TCProgram12_2C2EjPKct
FNDA:0,_ZN20EmuGSS_TCProgram12_2C2EjPKct
FN:66,_ZN20EmuGSS_TCProgram12_214BuildTCAppDataER17tc_mem_descriptor
FNDA:0,_ZN20EmuGSS_TCProgram12_214BuildTCAppDataER17tc_mem_descriptor
FN:73,_ZN33EmuGSS_TCProgram12_5_Limit_UINT32C2EjPKctthhjtjt
FNDA:0,_ZN33EmuGSS_TCProgram12_5_Limit_UINT32C2EjPKctthhjtjt
FN:91,_ZN33EmuGSS_TCProgram12_5_Limit_UINT3214BuildTCAppDataER17tc_mem_descriptor
FNDA:0,_ZN33EmuGSS_TCProgram12_5_Limit_UINT3214BuildTCAppDataER17tc_mem_descriptor
FN:107,_ZN32EmuGSS_TCProgram12_5_Limit_UINT8C2EjPKctthhhtht
FNDA:0,_ZN32EmuGSS_TCProgram12_5_Limit_UINT8C2EjPKctthhhtht
FN:125,_ZN32EmuGSS_TCProgram12_5_Limit_UINT814BuildTCAppDataER17tc_mem_descriptor
FNDA:0,_ZN32EmuGSS_TCProgram12_5_Limit_UINT814BuildTCAppDataER17tc_mem_descriptor
FN:141,_ZN32EmuGSS_TCProgram12_5_Value_UINT8C2EjPKctthhhht
FNDA:2,_ZN32EmuGSS_TCProgram12_5_Value_UINT8C2EjPKctthhhht
FN:158,_ZN32EmuGSS_TCProgram12_5_Value_UINT814BuildTCAppDataER17tc_mem_descriptor
FNDA:2,_ZN32EmuGSS_TCProgram12_5_Value_UINT814BuildTCAppDataER17tc_mem_descriptor
FN:173,_ZN20EmuGSS_TCProgram12_6C2EjPKct
FNDA:0,_ZN20EmuGSS_TCProgram12_6C2EjPKct
FN:182,_ZN20EmuGSS_TCProgram12_614BuildTCAppDataER17tc_mem_descriptor
FNDA:0,_ZN20EmuGSS_TCProgram12_614BuildTCAppDataER17tc_mem_descriptor
FN:190,_Z19EmuGSS_ShowServ12TMPK17tm_mem_descriptor
FNDA:6,_Z19EmuGSS_ShowServ12TMPK17tm_mem_descriptor
FN:197,_ZN18GSSServ12TMHandlerC2EPKh
FNDA:6,_ZN18GSSServ12TMHandlerC2EPKh
FN:202,_ZN18GSSServ12TMHandler6ShowTMEv
FNDA:6,_ZN18GSSServ12TMHandler6ShowTMEv
FN:212,_ZN18GSSServ12TMHandler15ShowValueStatusE18check_value_status
FNDA:12,_ZN18GSSServ12TMHandler15ShowValueStatusE18check_value_status
FN:228,_ZN18GSSServ12TMHandler15ShowLimitStatusE19check_limits_status
FNDA:0,_ZN18GSSServ12TMHandler15ShowLimitStatusE19check_limits_status
FN:249,_ZN18GSSServ12TMHandler12ShowTM_12_12Ev
FNDA:6,_ZN18GSSServ12TMHandler12ShowTM_12_12Ev
DA:41,2
DA:42,2
DA:44,2
DA:46,2
DA:47,2
DA:48,2
DA:50,2
DA:52,2
DA:53,2
DA:55,2
DA:57,0
DA:58,0
DA:60,0
DA:62,0
DA:63,0
DA:64,0
DA:66,0
DA:68,0
DA:69,0
DA:71,0
DA:73,0
DA:76,0
DA:78,0
DA:80,0
DA:81,0
DA:82,0
DA:83,0
DA:84,0
DA:85,0
DA:86,0
DA:87,0
DA:88,0
DA:89,0
DA:91,0
DA:94,0
DA:95,0
DA:96,0
DA:97,0
DA:98,0
DA:99,0
DA:100,0
DA:101,0
DA:102,0
DA:103,0
DA:105,0
DA:107,0
DA:110,0
DA:112,0
DA:114,0
DA:115,0
DA:116,0
DA:117,0
DA:118,0
DA:119,0
DA:120,0
DA:121,0
DA:122,0
DA:123,0
DA:125,0
DA:128,0
DA:129,0
DA:130,0
DA:131,0
DA:132,0
DA:133,0
DA:134,0
DA:135,0
DA:136,0
DA:137,0
DA:139,0
DA:141,2
DA:144,2
DA:146,2
DA:148,2
DA:149,2
DA:150,2
DA:151,2
DA:152,2
DA:153,2
DA:154,2
DA:155,2
DA:156,2
DA:158,2
DA:161,2
DA:162,2
DA:163,2
DA:164,2
DA:165,2
DA:166,2
DA:167,2
DA:168,2
DA:169,2
DA:171,2
DA:173,0
DA:174,0
DA:176,0
DA:178,0
DA:179,0
DA:180,0
DA:182,0
DA:184,0
DA:185,0
DA:187,0
DA:190,6
DA:192,6
DA:193,6
DA:195,6
DA:197,6
DA:198,6
DA:200,6
DA:202,6
DA:204,6
DA:205,6
DA:206,6
DA:207,6
DA:210,6
DA:212,12
DA:214,12
DA:216,6
DA:217,6
DA:218,6
DA:219,2
DA:220,2
DA:221,2
DA:222,4
DA:223,4
DA:224,4
DA:226,12
DA:228,0
DA:230,0
DA:232,0
DA:233,0
DA:234,0
DA:235,0
DA:236,0
DA:237,0
DA:238,0
DA:239,0
DA:240,0
DA:241,0
DA:242,0
DA:243,0
DA:247,0
DA:249,6
DA:254,6
DA:256,12
DA:258,6
DA:260,6
DA:262,6
DA:268,6
DA:270,6
DA:272,6
DA:274,6
DA:275,6
DA:276,6
DA:278,0
DA:279,0
DA:281,0
DA:283,0
DA:284,0
DA:285,0
DA:289,6
DA:291,0
DA:293,0
DA:295,0
DA:299,0
DA:300,0
DA:302,0
DA:304,6
DA:306,6
DA:308,6
DA:312,6
DA:313,6
DA:317,6
DA:318,6
DA:321,6
DA:323,6
DA:324,6
DA:325,6
DA:326,6
DA:327,6
DA:329,6
DA:332,6
DA:334,6
DA:335,6
DA:338,6
DA:339,6
DA:340,6
DA:343,0
DA:344,0
DA:345,0
DA:347,0
DA:350,0
DA:351,0
DA:352,0
DA:354,0
DA:355,0
DA:356,0
DA:360,6
DA:362,6
DA:366,6
end_of_record
TN:
SF:/home/atcsol/git/JOSE_PHOTOSAT/uah_photsat_freertos/llsw/emu_gss/src/emu_gss_pus_service19.cpp
FN:53,_ZN31EmuGSS_TCProgram19_1_Action_2_1C2EjPKct20DeviceCommandOnOff_t
FNDA:0,_ZN31EmuGSS_TCProgram19_1_Action_2_1C2EjPKct20DeviceCommandOnOff_t
FN:63,_ZN31EmuGSS_TCProgram19_1_Action_2_114BuildTCAppDataER17tc_mem_descriptor
FNDA:0,_ZN31EmuGSS_TCProgram19_1_Action_2_114BuildTCAppDataER17tc_mem_descriptor
FN:79,_ZN33EmuGSS_TCProgram19_1_Action_128_1C2EjPKct
FNDA:0,_ZN33EmuGSS_TCProgram19_1_Action_128_1C2EjPKct
FN:88,_ZN33EmuGSS_TCProgram19_1_Action_128_114BuildTCAppDataER17tc_mem_descriptor
FNDA:0,_ZN33EmuGSS_TCProgram19_1_Action_128_114BuildTCAppDataER17tc_mem_descriptor
FN:107,_ZN33EmuGSS_TCProgram19_1_Action_129_3C2EjPKct
FNDA:1,_ZN33EmuGSS_TCProgram19_1_Action_129_3C2EjPKct
FN:116,_ZN33EmuGSS_TCProgram19_1_Action_129_314BuildTCAppDataER17tc_mem_descriptor
FNDA:1,_ZN33EmuGSS_TCProgram19_1_Action_129_314BuildTCAppDataER17tc_mem_descriptor
FN:134,_ZN20EmuGSS_TCProgram19_2C2EjPKct
FNDA:0,_ZN20EmuGSS_TCProgram19_2C2EjPKct
FN:143,_ZN20EmuGSS_TCProgram19_214BuildTCAppDataER17tc_mem_descriptor
FNDA:0,_ZN20EmuGSS_TCProgram19_214BuildTCAppDataER17tc_mem_descriptor
FN:149,_ZN20EmuGSS_TCProgram19_4C2EjPKct
FNDA:1,_ZN20EmuGSS_TCProgram19_4C2EjPKct
FN:158,_ZN20EmuGSS_TCProgram19_414BuildTCAppDataER17tc_mem_descriptor
FNDA:1,_ZN20EmuGSS_TCProgram19_414BuildTCAppDataER17tc_mem_descriptor
FN:165,_ZN20EmuGSS_TCProgram19_5C2EjPKct
FNDA:0,_ZN20EmuGSS_TCProgram19_5C2EjPKct
FN:174,_ZN20EmuGSS_TCProgram19_514BuildTCAppDataER17tc_mem_descriptor
FNDA:0,_ZN20EmuGSS_TCProgram19_514BuildTCAppDataER17tc_mem_descriptor
FN:182,_Z19EmuGSS_ShowServ19TMPK17tm_mem_descriptor
FNDA:0,_Z19EmuGSS_ShowServ19TMPK17tm_mem_descriptor
FN:189,_ZN18GSSServ19TMHandlerC2EPKh
FNDA:0,_ZN18GSSServ19TMHandlerC2EPKh
FN:194,_ZN18GSSServ19TMHandler6ShowTMEv
FNDA:0,_ZN18GSSServ19TMHandler6ShowTMEv
DA:53,0
DA:55,0
DA:57,0
DA:59,0
DA:60,0
DA:61,0
DA:63,0
DA:68,0
DA:70,0
DA:71,0
DA:73,0
DA:74,0
DA:75,0
DA:77,0
DA:79,0
DA:80,0
DA:82,0
DA:83,0
DA:84,0
DA:86,0
DA:88,0
DA:93,0
DA:95,0
DA:96,0
DA:98,0
DA:100,0
DA:101,0
DA:103,0
DA:107,1
DA:108,1
DA:110,1
DA:111,1
DA:112,1
DA:114,1
DA:116,1
DA:121,1
DA:123,1
DA:124,1
DA:126,1
DA:128,14
DA:129,13
DA:131,1
DA:134,0
DA:135,0
DA:137,0
DA:139,0
DA:140,0
DA:141,0
DA:143,0
DA:144,0
DA:145,0
DA:147,0
DA:149,1
DA:150,1
DA:152,1
DA:154,1
DA:155,1
DA:156,1
DA:158,1
DA:160,1
DA:161,1
DA:163,1
DA:165,0
DA:166,0
DA:168,0
DA:170,0
DA:171,0
DA:172,0
DA:174,0
DA:176,0
DA:177,0
DA:179,0
DA:182,0
DA:184,0
DA:185,0
DA:187,0
DA:189,0
DA:190,0
DA:192,0
DA:194,0
DA:196,0
end_of_record
TN:
SF:/home/atcsol/git/JOSE_PHOTOSAT/uah_photsat_freertos/llsw/emu_gss/src/emu_gss_pus_service17.cpp
FN:30,_ZN20EmuGSS_TCProgram17_1C2EjPKc
FNDA:0,_ZN20EmuGSS_TCProgram17_1C2EjPKc
FN:37,_ZN20EmuGSS_TCProgram17_114BuildTCAppDataER17tc_mem_descriptor
FNDA:0,_ZN20EmuGSS_TCProgram17_114BuildTCAppDataER17tc_mem_descriptor
FN:41,_ZN32EmuGSS_TCProgram17_1_DISABLE_1_7C2EjPKc
FNDA:0,_ZN32EmuGSS_TCProgram17_1_DISABLE_1_7C2EjPKc
FN:49,_ZN32EmuGSS_TCProgram17_1_DISABLE_1_714BuildTCAppDataER17tc_mem_descriptor
FNDA:0,_ZN32EmuGSS_TCProgram17_1_DISABLE_1_714BuildTCAppDataER17tc_mem_descriptor
FN:56,_ZN20EmuGSS_TCProgram17_3C2EjPKct
FNDA:0,_ZN20EmuGSS_TCProgram17_3C2EjPKct
FN:64,_ZN20EmuGSS_TCProgram17_314BuildTCAppDataER17tc_mem_descriptor
FNDA:0,_ZN20EmuGSS_TCProgram17_314BuildTCAppDataER17tc_mem_descriptor
DA:30,0
DA:31,0
DA:32,0
DA:34,0
DA:35,0
DA:37,0
DA:39,0
DA:41,0
DA:42,0
DA:43,0
DA:45,0
DA:46,0
DA:47,0
DA:49,0
DA:52,0
DA:56,0
DA:57,0
DA:58,0
DA:60,0
DA:61,0
DA:62,0
DA:64,0
DA:66,0
end_of_record
TN:
SF:/home/atcsol/git/JOSE_PHOTOSAT/uah_photsat_freertos/llsw/emu_gss/src/emu_gss_pus_service05.cpp
FN:37,_ZN19EmuGSS_TCProgram5_5C2EjPKct
FNDA:0,_ZN19EmuGSS_TCProgram5_5C2EjPKct
FN:46,_ZN19EmuGSS_TCProgram5_514BuildTCAppDataER17tc_mem_descriptor
FNDA:0,_ZN19EmuGSS_TCProgram5_514BuildTCAppDataER17tc_mem_descriptor
FN:53,_ZN19EmuGSS_TCProgram5_6C2EjPKct
FNDA:0,_ZN19EmuGSS_TCProgram5_6C2EjPKct
FN:62,_ZN19EmuGSS_TCProgram5_614BuildTCAppDataER17tc_mem_descriptor
FNDA:0,_ZN19EmuGSS_TCProgram5_614BuildTCAppDataER17tc_mem_descriptor
FN:70,_Z18EmuGSS_ShowServ5TMPK17tm_mem_descriptor
FNDA:3,_Z18EmuGSS_ShowServ5TMPK17tm_mem_descriptor
FN:77,_ZN17GSSServ5TMHandlerC2EPKh
FNDA:3,_ZN17GSSServ5TMHandlerC2EPKh
FN:82,_ZN17GSSServ5TMHandler6ShowTMEv
FNDA:3,_ZN17GSSServ5TMHandler6ShowTMEv
FN:101,_ZN17GSSServ5TMHandler10ShowTM_5_1Ev
FNDA:1,_ZN17GSSServ5TMHandler10ShowTM_5_1Ev
FN:129,_ZN17GSSServ5TMHandler10ShowTM_5_2Ev
FNDA:0,_ZN17GSSServ5TMHandler10ShowTM_5_2Ev
FN:137,_ZN17GSSServ5TMHandler10ShowTM_5_3Ev
FNDA:0,_ZN17GSSServ5TMHandler10ShowTM_5_3Ev
FN:145,_ZN17GSSServ5TMHandler10ShowTM_5_4Ev
FNDA:2,_ZN17GSSServ5TMHandler10ShowTM_5_4Ev
DA:37,0
DA:38,0
DA:40,0
DA:42,0
DA:43,0
DA:44,0
DA:46,0
DA:48,0
DA:49,0
DA:51,0
DA:53,0
DA:54,0
DA:56,0
DA:58,0
DA:59,0
DA:60,0
DA:62,0
DA:64,0
DA:65,0
DA:67,0
DA:70,3
DA:72,3
DA:73,3
DA:75,3
DA:77,3
DA:78,3
DA:80,3
DA:82,3
DA:84,3
DA:85,1
DA:86,1
DA:87,1
DA:88,0
DA:89,0
DA:90,0
DA:91,0
DA:92,0
DA:93,0
DA:94,2
DA:95,2
DA:96,2
DA:99,3
DA:101,1
DA:103,1
DA:105,1
DA:107,1
DA:109,1
DA:111,1
DA:112,1
DA:114,0
DA:116,0
DA:117,0
DA:119,0
DA:121,0
DA:122,0
DA:123,0
DA:124,0
DA:126,1
DA:127,1
DA:129,0
DA:131,0
DA:133,0
DA:135,0
DA:137,0
DA:139,0
DA:141,0
DA:143,0
DA:145,2
DA:147,2
DA:149,2
DA:151,2
DA:152,0
DA:154,0
DA:160,0
DA:162,0
DA:164,0
DA:165,0
DA:166,0
DA:167,0
DA:169,0
DA:170,0
DA:171,0
DA:172,0
DA:173,0
DA:175,0
DA:178,0
DA:179,0
DA:181,0
DA:182,0
DA:184,0
DA:186,0
DA:188,0
DA:190,0
DA:193,2
end_of_record
TN:
SF:/home/atcsol/git/JOSE_PHOTOSAT/uah_photsat_freertos/llsw/emu_gss/src/emu_gss_pus_service03.cpp
FN:42,_ZN19EmuGSS_TCProgram3_5C2EjPKct
FNDA:0,_ZN19EmuGSS_TCProgram3_5C2EjPKct
FN:51,_ZN19EmuGSS_TCProgram3_514BuildTCAppDataER17tc_mem_descriptor
FNDA:0,_ZN19EmuGSS_TCProgram3_514BuildTCAppDataER17tc_mem_descriptor
FN:58,_ZN19EmuGSS_TCProgram3_6C2EjPKct
FNDA:0,_ZN19EmuGSS_TCProgram3_6C2EjPKct
FN:67,_ZN19EmuGSS_TCProgram3_614BuildTCAppDataER17tc_mem_descriptor
FNDA:0,_ZN19EmuGSS_TCProgram3_614BuildTCAppDataER17tc_mem_descriptor
FN:74,_ZN20EmuGSS_TCProgram3_31C2EjPKcth
FNDA:0,_ZN20EmuGSS_TCProgram3_31C2EjPKcth
FN:85,_ZN20EmuGSS_TCProgram3_3114BuildTCAppDataER17tc_mem_descriptor
FNDA:0,_ZN20EmuGSS_TCProgram3_3114BuildTCAppDataER17tc_mem_descriptor
FN:94,_Z18EmuGSS_ShowServ3TMPK17tm_mem_descriptor
FNDA:60,_Z18EmuGSS_ShowServ3TMPK17tm_mem_descriptor
FN:101,_ZN17GSSServ3TMHandlerC2EPKh
FNDA:60,_ZN17GSSServ3TMHandlerC2EPKh
FN:106,_ZN17GSSServ3TMHandler6ShowTMEv
FNDA:60,_ZN17GSSServ3TMHandler6ShowTMEv
FN:116,_ZN17GSSServ3TMHandler11ShowTM_3_25Ev
FNDA:60,_ZN17GSSServ3TMHandler11ShowTM_3_25Ev
FN:128,_ZN17GSSServ3TMHandler15ShowTM_3_25_SIDEt
FNDA:60,_ZN17GSSServ3TMHandler15ShowTM_3_25_SIDEt
DA:42,0
DA:43,0
DA:45,0
DA:47,0
DA:48,0
DA:49,0
DA:51,0
DA:53,0
DA:54,0
DA:56,0
DA:58,0
DA:59,0
DA:61,0
DA:63,0
DA:64,0
DA:65,0
DA:67,0
DA:69,0
DA:70,0
DA:72,0
DA:74,0
DA:75,0
DA:77,0
DA:79,0
DA:80,0
DA:82,0
DA:83,0
DA:85,0
DA:87,0
DA:88,0
DA:89,0
DA:91,0
DA:94,60
DA:96,60
DA:97,60
DA:99,60
DA:101,60
DA:102,60
DA:104,60
DA:106,60
DA:108,60
DA:109,60
DA:110,60
DA:111,60
DA:114,60
DA:116,60
DA:118,60
DA:120,60
DA:122,60
DA:124,60
DA:128,60
DA:131,60
DA:133,60
DA:135,60
DA:137,480
DA:141,420
DA:143,420
DA:145,420
DA:146,420
DA:148,0
DA:149,0
DA:151,0
DA:153,180
DA:154,180
DA:156,180
DA:157,240
DA:158,240
DA:160,240
DA:162,0
DA:163,0
DA:167,420
DA:169,420
DA:170,60
DA:171,60
DA:173,360
DA:174,60
DA:175,60
DA:176,60
DA:180,300
DA:181,300
DA:188,60
end_of_record
TN:
SF:/home/atcsol/git/JOSE_PHOTOSAT/uah_photsat_freertos/llsw/emu_gss/src/emu_gss_pus_service128.cpp
FN:33,_ZN21EmuGSS_TCProgram128_1C2EjPKc
FNDA:1,_ZN21EmuGSS_TCProgram128_1C2EjPKc
FN:42,_ZN21EmuGSS_TCProgram128_1C2Ev
FNDA:0,_ZN21EmuGSS_TCProgram128_1C2Ev
FN:49,_ZN21EmuGSS_TCProgram128_114BuildTCAppDataER17tc_mem_descriptor
FNDA:1,_ZN21EmuGSS_TCProgram128_114BuildTCAppDataER17tc_mem_descriptor
DA:33,1
DA:34,1
DA:36,1
DA:38,1
DA:39,1
DA:42,0
DA:43,0
DA:47,0
DA:49,1
DA:52,1
end_of_record
TN:
SF:/home/atcsol/git/JOSE_PHOTOSAT/uah_photsat_freertos/llsw/emu_gss/src/emu_gss_pus_service129.cpp
FN:17,_ZN21EmuGSS_TCProgram129_1C2EjPKcssh
FNDA:1,_ZN21EmuGSS_TCProgram129_1C2EjPKcssh
FN:33,_ZN21EmuGSS_TCProgram129_114BuildTCAppDataER17tc_mem_descriptor
FNDA:1,_ZN21EmuGSS_TCProgram129_114BuildTCAppDataER17tc_mem_descriptor
FN:47,_ZN21EmuGSS_TCProgram129_2C2EjPKcfff
FNDA:1,_ZN21EmuGSS_TCProgram129_2C2EjPKcfff
FN:61,_ZN21EmuGSS_TCProgram129_214BuildTCAppDataER17tc_mem_descriptor
FNDA:1,_ZN21EmuGSS_TCProgram129_214BuildTCAppDataER17tc_mem_descriptor
FN:71,_ZN21EmuGSS_TCProgram129_3C2EjPKc
FNDA:0,_ZN21EmuGSS_TCProgram129_3C2EjPKc
FN:79,_ZN21EmuGSS_TCProgram129_3C2Ev
FNDA:1,_ZN21EmuGSS_TCProgram129_3C2Ev
FN:87,_ZN21EmuGSS_TCProgram129_314BuildTCAppDataER17tc_mem_descriptor
FNDA:1,_ZN21EmuGSS_TCProgram129_314BuildTCAppDataER17tc_mem_descriptor
DA:17,1
DA:20,1
DA:22,1
DA:26,1
DA:27,1
DA:28,1
DA:30,1
DA:31,1
DA:33,1
DA:38,1
DA:39,1
DA:40,1
DA:44,1
DA:47,1
DA:49,1
DA:51,1
DA:54,1
DA:55,1
DA:56,1
DA:58,1
DA:59,1
DA:61,1
DA:64,1
DA:65,1
DA:66,1
DA:68,1
DA:71,0
DA:72,0
DA:74,0
DA:76,0
DA:77,0
DA:79,1
DA:80,1
DA:84,1
DA:87,1
DA:91,1
end_of_record
TN:
SF:/home/atcsol/git/JOSE_PHOTOSAT/uah_photsat_freertos/llsw/emu_gss/src/emu_gss_sys_data_pool.cpp
FN:15,_ZN14GSSSysDataPool12ShowPIDValueEt14data_pool_item
FNDA:438,_ZN14GSSSysDataPool12ShowPIDValueEt14data_pool_item
DA:15,438
DA:19,438
DA:21,438
DA:23,0
DA:25,0
DA:27,0
DA:28,0
DA:30,0
DA:34,0
DA:38,0
DA:39,240
DA:41,240
DA:42,60
DA:43,60
DA:44,60
DA:45,60
DA:49,60
DA:51,60
DA:52,60
DA:53,60
DA:54,60
DA:57,60
DA:60,60
DA:61,60
DA:62,60
DA:63,60
DA:65,60
DA:66,60
DA:67,60
DA:68,60
DA:69,60
DA:71,60
DA:74,0
DA:75,0
DA:76,0
DA:80,240
DA:82,198
DA:84,198
DA:85,0
DA:87,198
DA:89,60
DA:91,138
DA:92,69
DA:94,69
DA:95,69
DA:99,198
DA:101,198
DA:102,0
DA:103,0
DA:106,438
end_of_record
TN:
SF:/home/atcsol/git/JOSE_PHOTOSAT/uah_photsat_freertos/llsw/emu_gss/src/emu_gss_pus_service04.cpp
FN:37,_ZN19EmuGSS_TCProgram4_1C2EjPKc
FNDA:0,_ZN19EmuGSS_TCProgram4_1C2EjPKc
FN:43,_ZN19EmuGSS_TCProgram4_114BuildTCAppDataER17tc_mem_descriptor
FNDA:0,_ZN19EmuGSS_TCProgram4_114BuildTCAppDataER17tc_mem_descriptor
FN:47,_ZN19EmuGSS_TCProgram4_6C2EjPKct
FNDA:0,_ZN19EmuGSS_TCProgram4_6C2EjPKct
FN:56,_ZN19EmuGSS_TCProgram4_614BuildTCAppDataER17tc_mem_descriptor
FNDA:0,_ZN19EmuGSS_TCProgram4_614BuildTCAppDataER17tc_mem_descriptor
FN:63,_ZN19EmuGSS_TCProgram4_7C2EjPKct
FNDA:0,_ZN19EmuGSS_TCProgram4_7C2EjPKct
FN:72,_ZN19EmuGSS_TCProgram4_714BuildTCAppDataER17tc_mem_descriptor
FNDA:0,_ZN19EmuGSS_TCProgram4_714BuildTCAppDataER17tc_mem_descriptor
FN:80,_Z18EmuGSS_ShowServ4TMPK17tm_mem_descriptor
FNDA:0,_Z18EmuGSS_ShowServ4TMPK17tm_mem_descriptor
FN:87,_ZN17GSSServ4TMHandlerC2EPKh
FNDA:0,_ZN17GSSServ4TMHandlerC2EPKh
FN:92,_ZN17GSSServ4TMHandler6ShowTMEv
FNDA:0,_ZN17GSSServ4TMHandler6ShowTMEv
FN:102,_ZN17GSSServ4TMHandler10ShowTM_4_2Ev
FNDA:0,_ZN17GSSServ4TMHandler10ShowTM_4_2Ev
FN:123,_ZN17GSSServ4TMHandler19ShowTM_4_2_PIDValueEv
FNDA:0,_ZN17GSSServ4TMHandler19ShowTM_4_2_PIDValueEv
DA:37,0
DA:38,0
DA:40,0
DA:41,0
DA:43,0
DA:45,0
DA:47,0
DA:48,0
DA:50,0
DA:52,0
DA:53,0
DA:54,0
DA:56,0
DA:58,0
DA:59,0
DA:61,0
DA:63,0
DA:64,0
DA:66,0
DA:68,0
DA:69,0
DA:70,0
DA:72,0
DA:74,0
DA:75,0
DA:77,0
DA:80,0
DA:82,0
DA:83,0
DA:85,0
DA:87,0
DA:88,0
DA:90,0
DA:92,0
DA:94,0
DA:95,0
DA:96,0
DA:97,0
DA:100,0
DA:102,0
DA:104,0
DA:105,0
DA:107,0
DA:108,0
DA:110,0
DA:112,0
DA:114,0
DA:116,0
DA:117,0
DA:118,0
DA:121,0
DA:123,0
DA:129,0
DA:131,0
DA:133,0
DA:135,0
DA:136,0
DA:138,0
DA:140,0
DA:141,0
DA:142,0
DA:144,0
DA:145,0
DA:146,0
DA:148,0
DA:149,0
DA:151,0
DA:152,0
DA:154,0
DA:156,0
DA:157,0
DA:158,0
DA:160,0
DA:162,0
DA:163,0
DA:164,0
DA:166,0
DA:167,0
DA:168,0
DA:170,0
DA:171,0
DA:173,0
DA:174,0
DA:176,0
DA:178,0
DA:179,0
DA:180,0
DA:182,0
DA:183,0
DA:184,0
DA:187,0
end_of_record
TN:
SF:/home/atcsol/git/JOSE_PHOTOSAT/uah_photsat_freertos/llsw/emu_hw_timecode_drv/src/emu_hw_timecode_drv.cpp
FN:18,_Z20EmuHwTimeCodeStartUpv
FNDA:1,_Z20EmuHwTimeCodeStartUpv
FN:25,_Z23EmuHwTimeCodePassSecondv
FNDA:60,_Z23EmuHwTimeCodePassSecondv
FN:38,EmuHwTimeCodeSetNextOBT
FNDA:0,EmuHwTimeCodeSetNextOBT
FN:43,EmuHwTimeCodeGetCurrentOBT
FNDA:227,EmuHwTimeCodeGetCurrentOBT
FN:49,EmuHwTimeCodeGetCurrentFineTimeOBT
FNDA:0,EmuHwTimeCodeGetCurrentFineTimeOBT
DA:18,1
DA:21,1
DA:23,1
DA:25,60
DA:27,60
DA:28,60
DA:32,60
DA:36,59
DA:38,0
DA:40,0
DA:41,0
DA:43,227
DA:45,227
DA:49,0
DA:51,0
end_of_record
TN:
SF:/home/atcsol/git/JOSE_PHOTOSAT/uah_photsat_freertos/service_libraries/edroomsl/edroombp/include/public/edroombp.h
FN:192,_ZN12Pr_SemaphoreD2Ev
FNDA:0,_ZN12Pr_SemaphoreD2Ev
FN:310,_ZN15Pr_SemaphoreRec4WaitEv
FNDA:0,_ZN15Pr_SemaphoreRec4WaitEv
FN:319,_ZN15Pr_SemaphoreRec6SignalEv
FNDA:0,_ZN15Pr_SemaphoreRec6SignalEv
FN:337,_ZN15Pr_SemaphoreRecD2Ev
FNDA:0,_ZN15Pr_SemaphoreRecD2Ev
DA:192,0
DA:194,0
DA:195,0
DA:310,0
DA:319,0
DA:337,0
end_of_record
SF:/home/atcsol/git/JOSE_PHOTOSAT/uah_photsat_freertos/llsw/tmtc_dyn_mem/src/tmtc_pool.cpp
FN:64,init_tmtc_pool
FNDA:1,init_tmtc_pool
FN:76,tmtc_pool_alloc
FNDA:111,tmtc_pool_alloc
FN:103,tmtc_pool_free
FNDA:122,tmtc_pool_free
DA:64,1
DA:67,51
DA:68,50
DA:73,1
DA:76,111
DA:78,111
DA:81,111
DA:84,142
DA:86,142
DA:87,111
DA:88,111
DA:89,111
DA:94,111
DA:98,111
DA:103,122
DA:108,122
DA:109,122
DA:111,122
DA:113,122
DA:114,122
DA:115,122
DA:118,122
end_of_record
TN:
SF:/home/atcsol/git/JOSE_PHOTOSAT/uah_photsat_freertos/llsw/tc_rate_ctrl/src/tc_rate_ctrl.cpp
FN:45,_Z11ExtractHeadv
FNDA:0,_Z11ExtractHeadv
FN:51,_Z6IsFullv
FNDA:0,_Z6IsFullv
FN:59,_Z10AddElement7Pr_Timeb
FNDA:9,_Z10AddElement7Pr_Timeb
FN:72,_Z13RxTC_RateCtrlv
FNDA:9,_Z13RxTC_RateCtrlv
FN:118,_Z19RxTC_TCRateExceededv
FNDA:0,_Z19RxTC_TCRateExceededv
DA:45,0
DA:47,0
DA:48,0
DA:49,0
DA:51,0
DA:53,0
DA:59,9
DA:63,9
DA:64,9
DA:66,9
DA:68,9
DA:70,9
DA:72,9
DA:74,9
DA:79,9
DA:81,9
DA:83,9
DA:86,9
DA:89,0
DA:91,0
DA:92,0
DA:93,0
DA:95,0
DA:97,0
DA:98,0
DA:101,0
DA:103,0
DA:107,0
DA:111,9
DA:112,9
DA:113,9
DA:115,9
DA:118,0
DA:121,0
DA:123,0
DA:124,0
DA:126,0
DA:128,0
end_of_record
SF:/home/atcsol/git/JOSE_PHOTOSAT/uah_photsat_freertos/service_libraries/edroomsl/edroombp/include/public/edroombp.h
FN:192,_ZN12Pr_SemaphoreD2Ev
FNDA:0,_ZN12Pr_SemaphoreD2Ev
FN:310,_ZN15Pr_SemaphoreRec4WaitEv
FNDA:0,_ZN15Pr_SemaphoreRec4WaitEv
FN:319,_ZN15Pr_SemaphoreRec6SignalEv
FNDA:0,_ZN15Pr_SemaphoreRec6SignalEv
FN:337,_ZN15Pr_SemaphoreRecD2Ev
FNDA:0,_ZN15Pr_SemaphoreRecD2Ev
DA:192,0
DA:194,0
DA:195,0
DA:310,0
DA:319,0
DA:337,0
end_of_record
TN:
SF:/home/atcsol/git/JOSE_PHOTOSAT/uah_photsat_freertos/llsw/tc_queue_drv/src/tc_queue_drv.cpp
FN:47,_Z12TCQueue_InitPFvvES0_
FNDA:1,_Z12TCQueue_InitPFvvES0_
FN:56,_Z14TCQueue_IsFullv
FNDA:0,_Z14TCQueue_IsFullv
FN:72,_Z15TCQueue_IsEmptyv
FNDA:9,_Z15TCQueue_IsEmptyv
FN:88,_Z23TCQueue_GetTailTCMemoryv
FNDA:9,_Z23TCQueue_GetTailTCMemoryv
FN:108,_Z23TCQueue_TailTCCompletedt
FNDA:9,_Z23TCQueue_TailTCCompletedt
FN:125,_Z23TCQueue_GetHeadTCMemoryRt
FNDA:9,_Z23TCQueue_GetHeadTCMemoryRt
FN:144,_Z23TCQueue_HeadTCExtractedv
FNDA:9,_Z23TCQueue_HeadTCExtractedv
DA:47,1
DA:49,1
DA:50,1
DA:51,1
DA:52,1
DA:54,1
DA:56,0
DA:61,0
DA:63,0
DA:65,0
DA:69,0
DA:72,9
DA:77,9
DA:79,9
DA:81,9
DA:85,9
DA:88,9
DA:94,9
DA:96,9
DA:97,9
DA:99,9
DA:103,9
DA:105,9
DA:108,9
DA:111,9
DA:115,9
DA:117,9
DA:119,9
DA:123,9
DA:125,9
DA:131,9
DA:133,9
DA:135,9
DA:137,9
DA:141,9
DA:144,9
DA:148,9
DA:150,9
DA:151,9
DA:153,9
DA:157,9
end_of_record
TN:
SF:/home/atcsol/git/JOSE_PHOTOSAT/uah_photsat_freertos/llsw/freertos_osswr/Source/queue.c
FN:303,xQueueGenericReset
FNDA:59,xQueueGenericReset
FN:502,xQueueGenericCreate
FNDA:59,xQueueGenericCreate
FN:566,prvInitialiseNewQueue
FNDA:59,prvInitialiseNewQueue
FN:614,prvInitialiseMutex
FNDA:15,prvInitialiseMutex
FN:644,xQueueCreateMutex
FNDA:15,xQueueCreateMutex
FN:689,xQueueGetMutexHolder
FNDA:0,xQueueGetMutexHolder
FN:726,xQueueGetMutexHolderFromISR
FNDA:0,xQueueGetMutexHolderFromISR
FN:756,xQueueGiveMutexRecursive
FNDA:0,xQueueGiveMutexRecursive
FN:815,xQueueTakeMutexRecursive
FNDA:0,xQueueTakeMutexRecursive
FN:902,xQueueCreateCountingSemaphore
FNDA:42,xQueueCreateCountingSemaphore
FN:939,xQueueGenericSend
FNDA:10689,xQueueGenericSend
FN:1157,xQueueGenericSendFromISR
FNDA:0,xQueueGenericSendFromISR
FN:1326,xQueueGiveFromISR
FNDA:0,xQueueGiveFromISR
FN:1496,xQueueReceive
FNDA:0,xQueueReceive
FN:1646,xQueueSemaphoreTake
FNDA:12130,xQueueSemaphoreTake
FN:1871,xQueuePeek
FNDA:0,xQueuePeek
FN:2029,xQueueReceiveFromISR
FNDA:0,xQueueReceiveFromISR
FN:2126,xQueuePeekFromISR
FNDA:0,xQueuePeekFromISR
FN:2185,uxQueueMessagesWaiting
FNDA:0,uxQueueMessagesWaiting
FN:2205,uxQueueSpacesAvailable
FNDA:0,uxQueueSpacesAvailable
FN:2226,uxQueueMessagesWaitingFromISR
FNDA:0,uxQueueMessagesWaitingFromISR
FN:2242,vQueueDelete
FNDA:6,vQueueDelete
FN:2331,uxQueueGetQueueItemSize
FNDA:0,uxQueueGetQueueItemSize
FN:2341,uxQueueGetQueueLength
FNDA:0,uxQueueGetQueueLength
FN:2353,prvGetDisinheritPriorityAfterTimeout
FNDA:0,prvGetDisinheritPriorityAfterTimeout
FN:2378,prvCopyDataToQueue
FNDA:10689,prvCopyDataToQueue
FN:2461,prvCopyDataFromQueue
FNDA:0,prvCopyDataFromQueue
FN:2482,prvUnlockQueue
FNDA:3656,prvUnlockQueue
FN:2602,prvIsQueueEmpty
FNDA:3655,prvIsQueueEmpty
FN:2623,xQueueIsQueueEmptyFromISR
FNDA:0,xQueueIsQueueEmptyFromISR
FN:2647,prvIsQueueFull
FNDA:0,prvIsQueueFull
FN:2668,xQueueIsQueueFullFromISR
FNDA:0,xQueueIsQueueFullFromISR
FN:2997,vQueueAddToRegistry
FNDA:1,vQueueAddToRegistry
FN:3048,pcQueueGetName
FNDA:0,pcQueueGetName
FN:3083,vQueueUnregisterQueue
FNDA:6,vQueueUnregisterQueue
FN:3120,vQueueWaitForMessageRestricted
FNDA:1,vQueueWaitForMessageRestricted
FN:3164,xQueueCreateSet
FNDA:0,xQueueCreateSet
FN:3182,xQueueAddToSet
FNDA:0,xQueueAddToSet
FN:3220,xQueueRemoveFromSet
FNDA:0,xQueueRemoveFromSet
FN:3261,xQueueSelectFromSet
FNDA:0,xQueueSelectFromSet
FN:3280,xQueueSelectFromSetFromISR
FNDA:0,xQueueSelectFromSetFromISR
FN:3298,prvNotifyQueueSetContainer
FNDA:0,prvNotifyQueueSetContainer
DA:303,59
DA:306,59
DA:307,59
DA:311,59
DA:313,59
DA:314,59
DA:316,59
DA:318,59
DA:320,59
DA:321,59
DA:322,59
DA:323,59
DA:324,59
DA:325,59
DA:327,59
DA:334,0
DA:336,0
DA:338,0
DA:353,59
DA:354,59
DA:357,59
DA:361,0
DA:364,59
DA:370,59
DA:502,59
DA:506,59
DA:512,59
DA:514,59
DA:516,59
DA:521,59
DA:526,59
DA:528,59
DA:532,59
DA:533,59
DA:544,59
DA:554,0
DA:560,59
DA:566,59
DA:576,59
DA:582,58
DA:587,1
DA:592,59
DA:593,59
DA:594,59
DA:604,59
DA:609,59
DA:614,15
DA:616,15
DA:622,15
DA:623,15
DA:626,15
DA:631,15
DA:637,15
DA:644,15
DA:647,15
DA:651,15
DA:652,15
DA:656,15
DA:689,0
DA:692,0
DA:696,0
DA:703,0
DA:705,0
DA:707,0
DA:711,0
DA:714,0
DA:718,0
DA:726,0
DA:732,0
DA:737,0
DA:739,0
DA:743,0
DA:748,0
DA:756,0
DA:759,0
DA:763,0
DA:771,0
DA:780,0
DA:783,0
DA:787,0
DA:794,0
DA:800,0
DA:807,0
DA:815,0
DA:819,0
DA:823,0
DA:830,0
DA:832,0
DA:833,0
DA:837,0
DA:842,0
DA:844,0
DA:854,0
DA:902,42
DA:905,42
DA:909,42
DA:912,42
DA:914,42
DA:916,42
DA:927,0
DA:933,42
DA:939,10689
DA:944,10689
DA:946,10689
DA:950,10689
DA:951,10689
DA:952,10689
DA:955,10689
DA:961,10689
DA:967,10689
DA:973,10689
DA:975,10689
DA:977,10689
DA:979,0
DA:986,0
DA:991,0
DA:1002,10689
DA:1004,2208
DA:1010,25
DA:1017,8481
DA:1023,0
DA:1067,10688
DA:1071,10688
DA:1075,0
DA:1079,0
DA:1086,0
DA:1088,0
DA:1092,0
DA:1093,0
DA:1102,0
DA:1107,0
DA:1108,0
DA:1111,0
DA:1113,0
DA:1116,0
DA:1123,0
DA:1130,0
DA:1132,0
DA:1138,0
DA:1139,0
DA:1145,0
DA:1146,0
DA:1151,0
DA:1157,0
DA:1164,0
DA:1168,0
DA:1169,0
DA:1170,0
DA:1193,0
DA:1195,0
DA:1196,0
DA:1197,0
DA:1198,0
DA:1207,0
DA:1211,0
DA:1215,0
DA:1217,0
DA:1224,0
DA:1229,0
DA:1231,0
DA:1245,0
DA:1247,0
DA:1251,0
DA:1253,0
DA:1307,0
DA:1310,0
DA:1315,0
DA:1318,0
DA:1322,0
DA:1326,0
DA:1331,0
DA:1341,0
DA:1345,0
DA:1350,0
DA:1368,0
DA:1370,0
DA:1375,0
DA:1377,0
DA:1387,0
DA:1391,0
DA:1395,0
DA:1397,0
DA:1402,0
DA:1404,0
DA:1418,0
DA:1420,0
DA:1424,0
DA:1426,0
DA:1477,0
DA:1480,0
DA:1485,0
DA:1488,0
DA:1492,0
DA:1496,0
DA:1500,0
DA:1502,0
DA:1507,0
DA:1511,0
DA:1516,0
DA:1522,0
DA:1524,0
DA:1528,0
DA:1531,0
DA:1533,0
DA:1538,0
DA:1540,0
DA:1542,0
DA:1554,0
DA:1558,0
DA:1562,0
DA:1566,0
DA:1571,0
DA:1573,0
DA:1577,0
DA:1578,0
DA:1587,0
DA:1592,0
DA:1593,0
DA:1596,0
DA:1600,0
DA:1603,0
DA:1604,0
DA:1606,0
DA:1608,0
DA:1619,0
DA:1620,0
DA:1627,0
DA:1628,0
DA:1630,0
DA:1635,0
DA:1646,12130
DA:1649,12130
DA:1651,12130
DA:1654,12130
DA:1660,12130
DA:1664,12130
DA:1669,12130
DA:1675,15058
DA:1679,15058
DA:1683,15058
DA:1689,10674
DA:1693,10674
DA:1697,7739
DA:1708,10674
DA:1710,0
DA:1712,0
DA:1724,10674
DA:1728,10674
DA:1732,4384
DA:1736,729
DA:1741,729
DA:1743,3655
DA:1747,2935
DA:1748,2935
DA:1757,3655
DA:1762,3655
DA:1763,3655
DA:1766,3655
DA:1772,2935
DA:1778,2935
DA:1780,4
DA:1782,4
DA:1784,4
DA:1793,2935
DA:1794,2935
DA:1796,2935
DA:1798,2935
DA:1809,0
DA:1810,0
DA:1816,720
DA:1817,720
DA:1823,720
DA:1830,720
DA:1832,0
DA:1841,0
DA:1850,0
DA:1852,0
DA:1860,720
DA:1871,0
DA:1875,0
DA:1878,0
DA:1883,0
DA:1887,0
DA:1892,0
DA:1898,0
DA:1900,0
DA:1904,0
DA:1909,0
DA:1911,0
DA:1915,0
DA:1919,0
DA:1921,0
DA:1924,0
DA:1936,0
DA:1940,0
DA:1944,0
DA:1948,0
DA:1953,0
DA:1955,0
DA:1960,0
DA:1961,0
DA:1970,0
DA:1975,0
DA:1976,0
DA:1979,0
DA:1983,0
DA:1986,0
DA:1987,0
DA:1989,0
DA:1991,0
DA:2002,0
DA:2003,0
DA:2010,0
DA:2011,0
DA:2013,0
DA:2018,0
DA:2029,0
DA:2035,0
DA:2039,0
DA:2040,0
DA:2058,0
DA:2060,0
DA:2063,0
DA:2065,0
DA:2069,0
DA:2070,0
DA:2076,0
DA:2078,0
DA:2080,0
DA:2084,0
DA:2086,0
DA:2107,0
DA:2110,0
DA:2114,0
DA:2118,0
DA:2122,0
DA:2126,0
DA:2132,0
DA:2136,0
DA:2137,0
DA:2138,0
DA:2156,0
DA:2159,0
DA:2165,0
DA:2166,0
DA:2167,0
DA:2169,0
DA:2173,0
DA:2177,0
DA:2181,0
DA:2185,0
DA:2191,0
DA:2193,0
DA:2195,0
DA:2197,0
DA:2201,0
DA:2205,0
DA:2208,0
DA:2212,0
DA:2214,0
DA:2216,0
DA:2218,0
DA:2222,0
DA:2226,0
DA:2229,0
DA:2233,0
DA:2234,0
DA:2238,0
DA:2242,6
DA:2244,6
DA:2248,6
DA:2253,6
DA:2261,6
DA:2285,6
DA:2331,0
DA:2337,0
DA:2341,0
DA:2347,0
DA:2353,0
DA:2363,0
DA:2365,0
DA:2369,0
DA:2372,0
DA:2378,10689
DA:2382,10689
DA:2387,10689
DA:2389,10689
DA:2393,10689
DA:2396,7754
DA:2397,7754
DA:2406,0
DA:2408,0
DA:2409,0
DA:2411,0
DA:2413,0
DA:2422,0
DA:2423,0
DA:2425,0
DA:2427,0
DA:2434,0
DA:2436,0
DA:2442,0
DA:2455,10689
DA:2457,10689
DA:2461,0
DA:2464,0
DA:2466,0
DA:2468,0
DA:2470,0
DA:2477,0
DA:2479,0
DA:2482,3656
DA:2490,3656
DA:2492,3656
DA:2495,3656
DA:2501,0
DA:2503,0
DA:2508,0
DA:2520,0
DA:2522,0
DA:2526,0
DA:2535,0
DA:2563,0
DA:2566,3656
DA:2568,3656
DA:2571,3656
DA:2573,3656
DA:2575,3656
DA:2577,0
DA:2579,0
DA:2581,0
DA:2588,0
DA:2592,0
DA:2596,3656
DA:2598,3656
DA:2599,3656
DA:2602,3655
DA:2606,3655
DA:2608,3655
DA:2610,3655
DA:2614,0
DA:2617,3655
DA:2619,3655
DA:2623,0
DA:2626,0
DA:2630,0
DA:2632,0
DA:2634,0
DA:2638,0
DA:2643,0
DA:2647,0
DA:2651,0
DA:2653,0
DA:2655,0
DA:2659,0
DA:2662,0
DA:2664,0
DA:2668,0
DA:2671,0
DA:2675,0
DA:2677,0
DA:2679,0
DA:2683,0
DA:2688,0
DA:2997,1
DA:3001,1
DA:3005,1
DA:3007,1
DA:3011,21
DA:3014,20
DA:3016,0
DA:3017,0
DA:3020,20
DA:3022,1
DA:3031,1
DA:3034,1
DA:3035,1
DA:3041,1
DA:3048,0
DA:3051,0
DA:3055,0
DA:3060,0
DA:3062,0
DA:3064,0
DA:3065,0
DA:3075,0
DA:3083,6
DA:3089,6
DA:3093,126
DA:3095,120
DA:3098,0
DA:3103,0
DA:3104,0
DA:3113,6
DA:3120,1
DA:3124,1
DA:3142,1
DA:3144,1
DA:3147,1
DA:3154,1
DA:3157,1
DA:3164,0
DA:3170,0
DA:3174,0
DA:3182,0
DA:3189,0
DA:3191,0
DA:3194,0
DA:3196,0
DA:3200,0
DA:3204,0
DA:3205,0
DA:3208,0
DA:3212,0
DA:3220,0
DA:3224,0
DA:3228,0
DA:3231,0
DA:3233,0
DA:3238,0
DA:3242,0
DA:3245,0
DA:3247,0
DA:3248,0
DA:3253,0
DA:3261,0
DA:3264,0
DA:3268,0
DA:3272,0
DA:3280,0
DA:3282,0
DA:3286,0
DA:3290,0
DA:3298,0
DA:3300,0
DA:3301,0
DA:3308,0
DA:3309,0
DA:3311,0
DA:3313,0
DA:3318,0
DA:3320,0
DA:3322,0
DA:3324,0
DA:3327,0
DA:3341,0
DA:3349,0
end_of_record
TN:
SF:/home/atcsol/git/JOSE_PHOTOSAT/uah_photsat_freertos/llsw/freertos_osswr/Source/tasks.c
FN:1619,prvCreateTask
FNDA:12,prvCreateTask
FN:1717,xTaskCreate
FNDA:12,xTaskCreate
FN:1792,prvInitialiseNewTask
FNDA:12,prvInitialiseNewTask
FN:2018,prvAddNewTaskToReadyList
FNDA:12,prvAddNewTaskToReadyList
FN:2190,vTaskDelete
FNDA:0,vTaskDelete
FN:2342,xTaskDelayUntil
FNDA:0,xTaskDelayUntil
FN:2434,vTaskDelay
FNDA:20,vTaskDelay
FN:2484,eTaskGetState
FNDA:0,eTaskGetState
FN:2616,uxTaskPriorityGet
FNDA:0,uxTaskPriorityGet
FN:2642,uxTaskPriorityGetFromISR
FNDA:0,uxTaskPriorityGetFromISR
FN:2687,uxTaskBasePriorityGet
FNDA:0,uxTaskBasePriorityGet
FN:2713,uxTaskBasePriorityGetFromISR
FNDA:0,uxTaskBasePriorityGetFromISR
FN:2758,vTaskPrioritySet
FNDA:1443,vTaskPrioritySet
FN:3114,vTaskSuspend
FNDA:0,vTaskSuspend
FN:3276,prvTaskIsTaskSuspended
FNDA:0,prvTaskIsTaskSuspended
FN:3346,vTaskResume
FNDA:0,vTaskResume
FN:3407,xTaskResumeFromISR
FNDA:0,xTaskResumeFromISR
FN:3501,prvCreateIdleTasks
FNDA:1,prvCreateIdleTasks
FN:3655,vTaskStartScheduler
FNDA:1,vTaskStartScheduler
FN:3758,vTaskEndScheduler
FNDA:0,vTaskEndScheduler
FN:3801,vTaskSuspendAll
FNDA:3765,vTaskSuspendAll
FN:3946,xTaskResumeAll
FNDA:3765,xTaskResumeAll
FN:4096,xTaskGetTickCount
FNDA:3981,xTaskGetTickCount
FN:4115,xTaskGetTickCountFromISR
FNDA:0,xTaskGetTickCountFromISR
FN:4150,uxTaskGetNumberOfTasks
FNDA:0,uxTaskGetNumberOfTasks
FN:4162,pcTaskGetName
FNDA:12,pcTaskGetName
FN:4182,prvSearchForNameWithinSingleList
FNDA:0,prvSearchForNameWithinSingleList
FN:4327,xTaskGetHandle
FNDA:0,xTaskGetHandle
FN:4529,xTaskGetIdleTaskHandle
FNDA:0,xTaskGetIdleTaskHandle
FN:4543,xTaskGetIdleTaskHandleForCore
FNDA:0,xTaskGetIdleTaskHandleForCore
FN:4610,xTaskCatchUpTicks
FNDA:0,xTaskCatchUpTicks
FN:4640,xTaskAbortDelay
FNDA:0,xTaskAbortDelay
FN:4734,xTaskIncrementTick
FNDA:6001,xTaskIncrementTick
FN:4990,vTaskSetApplicationTaskTag
FNDA:0,vTaskSetApplicationTaskTag
FN:5024,xTaskGetApplicationTaskTag
FNDA:0,xTaskGetApplicationTaskTag
FN:5052,xTaskGetApplicationTaskTagFromISR
FNDA:0,xTaskGetApplicationTaskTagFromISR
FN:5081,xTaskCallApplicationTaskHook
FNDA:0,xTaskCallApplicationTaskHook
FN:5117,vTaskSwitchContext
FNDA:9702,vTaskSwitchContext
FN:5304,vTaskPlaceOnEventList
FNDA:2935,vTaskPlaceOnEventList
FN:5333,vTaskPlaceOnUnorderedEventList
FNDA:0,vTaskPlaceOnUnorderedEventList
FN:5365,vTaskPlaceOnEventListRestricted
FNDA:1,vTaskPlaceOnEventListRestricted
FN:5402,xTaskRemoveFromEventList
FNDA:2208,xTaskRemoveFromEventList
FN:5495,vTaskRemoveFromUnorderedEventList
FNDA:0,vTaskRemoveFromUnorderedEventList
FN:5567,vTaskSetTimeOutState
FNDA:0,vTaskSetTimeOutState
FN:5583,vTaskInternalSetTimeOutState
FNDA:3658,vTaskInternalSetTimeOutState
FN:5595,xTaskCheckForTimeOut
FNDA:3655,xTaskCheckForTimeOut
FN:5664,vTaskMissedYield
FNDA:0,vTaskMissedYield
FN:5809,prvIdleTask
FNDA:1,prvIdleTask
FN:6072,prvInitialiseTaskLists
FNDA:1,prvInitialiseTaskLists
FN:6104,prvCheckTasksWaitingTermination
FNDA:28528779754,prvCheckTasksWaitingTermination
FN:6467,prvDeleteTCB
FNDA:0,prvDeleteTCB
FN:6520,prvResetNextTaskUnblockTime
FNDA:0,prvResetNextTaskUnblockTime
FN:6544,xTaskGetCurrentTaskHandle
FNDA:26149,xTaskGetCurrentTaskHandle
FN:6579,xTaskGetCurrentTaskHandleForCore
FNDA:0,xTaskGetCurrentTaskHandleForCore
FN:6604,xTaskGetSchedulerState
FNDA:22819,xTaskGetSchedulerState
FN:6644,xTaskPriorityInherit
FNDA:4,xTaskPriorityInherit
FN:6747,xTaskPriorityDisinherit
FNDA:7754,xTaskPriorityDisinherit
FN:6841,vTaskPriorityDisinheritAfterTimeout
FNDA:0,vTaskPriorityDisinheritAfterTimeout
FN:7633,uxTaskResetEventItemValue
FNDA:0,uxTaskResetEventItemValue
FN:7653,pvTaskIncrementMutexHeldCount
FNDA:7739,pvTaskIncrementMutexHeldCount
FN:7678,ulTaskGenericNotifyTake
FNDA:0,ulTaskGenericNotifyTake
FN:7781,xTaskGenericNotifyWait
FNDA:0,xTaskGenericNotifyWait
FN:7896,xTaskGenericNotify
FNDA:0,xTaskGenericNotify
FN:8016,xTaskGenericNotifyFromISR
FNDA:0,xTaskGenericNotifyFromISR
FN:8179,vTaskGenericNotifyGiveFromISR
FNDA:0,vTaskGenericNotifyGiveFromISR
FN:8292,xTaskGenericNotifyStateClear
FNDA:0,xTaskGenericNotifyStateClear
FN:8330,ulTaskGenericNotifyValueClear
FNDA:0,ulTaskGenericNotifyValueClear
FN:8364,ulTaskGetRunTimeCounter
FNDA:0,ulTaskGetRunTimeCounter
FN:8382,ulTaskGetRunTimePercent
FNDA:0,ulTaskGetRunTimePercent
FN:8415,ulTaskGetIdleRunTimeCounter
FNDA:0,ulTaskGetIdleRunTimeCounter
FN:8437,ulTaskGetIdleRunTimePercent
FNDA:0,ulTaskGetIdleRunTimePercent
FN:8473,prvAddCurrentTaskToDelayedList
FNDA:2956,prvAddCurrentTaskToDelayedList
DA:1619,12
DA:1669,12
DA:1671,12
DA:1677,12
DA:1679,12
DA:1681,12
DA:1684,12
DA:1690,0
DA:1695,0
DA:1700,12
DA:1710,12
DA:1713,12
DA:1717,12
DA:1729,12
DA:1731,12
DA:1740,12
DA:1741,12
DA:1745,0
DA:1750,12
DA:1792,12
DA:1833,12
DA:1834,12
DA:1837,12
DA:1843,12
DA:1862,12
DA:1864,63
DA:1866,63
DA:1871,63
DA:1873,12
DA:1883,12
DA:1891,12
DA:1893,12
DA:1895,0
DA:1902,12
DA:1905,12
DA:1909,12
DA:1910,12
DA:1914,12
DA:1917,12
DA:1918,12
DA:1974,12
DA:2003,12
DA:2007,12
DA:2013,12
DA:2018,12
DA:2022,12
DA:2024,12
DA:2026,12
DA:2030,1
DA:2032,1
DA:2037,1
DA:2049,11
DA:2051,11
DA:2053,6
DA:2066,12
DA:2076,12
DA:2080,12
DA:2082,12
DA:2086,0
DA:2092,12
DA:2190,0
DA:2193,0
DA:2198,0
DA:2202,0
DA:2205,0
DA:2215,0
DA:2217,0
DA:2228,0
DA:2233,0
DA:2238,0
DA:2246,0
DA:2251,0
DA:2258,0
DA:2266,0
DA:2297,0
DA:2302,0
DA:2305,0
DA:2310,0
DA:2312,0
DA:2319,0
DA:2321,0
DA:2323,0
DA:2324,0
DA:2335,0
DA:2342,0
DA:2346,0
DA:2350,0
DA:2351,0
DA:2353,0
DA:2357,0
DA:2359,0
DA:2362,0
DA:2364,0
DA:2371,0
DA:2373,0
DA:2385,0
DA:2387,0
DA:2396,0
DA:2398,0
DA:2404,0
DA:2411,0
DA:2415,0
DA:2417,0
DA:2426,0
DA:2434,20
DA:2436,20
DA:2441,20
DA:2443,20
DA:2445,20
DA:2456,20
DA:2458,20
DA:2467,20
DA:2469,20
DA:2477,19
DA:2484,0
DA:2491,0
DA:2495,0
DA:2498,0
DA:2501,0
DA:2506,0
DA:2508,0
DA:2509,0
DA:2510,0
DA:2511,0
DA:2513,0
DA:2515,0
DA:2520,0
DA:2522,0
DA:2526,0
DA:2530,0
DA:2535,0
DA:2546,0
DA:2548,0
DA:2550,0
DA:2552,0
DA:2553,0
DA:2565,0
DA:2571,0
DA:2576,0
DA:2586,0
DA:2608,0
DA:2616,0
DA:2623,0
DA:2627,0
DA:2628,0
DA:2630,0
DA:2634,0
DA:2642,0
DA:2668,0
DA:2672,0
DA:2673,0
DA:2675,0
DA:2679,0
DA:2687,0
DA:2694,0
DA:2698,0
DA:2699,0
DA:2701,0
DA:2705,0
DA:2713,0
DA:2739,0
DA:2743,0
DA:2744,0
DA:2746,0
DA:2750,0
DA:2758,1443
DA:2763,1443
DA:2771,1443
DA:2774,1443
DA:2776,0
DA:2783,1443
DA:2787,1443
DA:2793,1443
DA:2801,1443
DA:2805,1443
DA:2809,723
DA:2814,0
DA:2816,0
DA:2838,720
DA:2847,720
DA:2860,1443
DA:2867,1443
DA:2869,1443
DA:2877,1443
DA:2887,1443
DA:2889,1443
DA:2900,1443
DA:2905,1443
DA:2917,1443
DA:2935,1443
DA:2938,720
DA:2962,1443
DA:2965,1443
DA:3114,0
DA:3120,0
DA:3124,0
DA:3130,0
DA:3140,0
DA:3142,0
DA:3149,0
DA:3155,0
DA:3157,0
DA:3161,0
DA:3207,0
DA:3213,0
DA:3217,0
DA:3219,0
DA:3221,0
DA:3228,0
DA:3230,0
DA:3233,0
DA:3234,0
DA:3245,0
DA:3247,0
DA:3253,0
DA:3257,0
DA:3269,0
DA:3276,0
DA:3278,0
DA:3279,0
DA:3285,0
DA:3288,0
DA:3291,0
DA:3295,0
DA:3306,0
DA:3308,0
DA:3310,0
DA:3312,0
DA:3313,0
DA:3338,0
DA:3346,0
DA:3348,0
DA:3353,0
DA:3359,0
DA:3370,0
DA:3372,0
DA:3378,0
DA:3379,0
DA:3384,0
DA:3391,0
DA:3399,0
DA:3407,0
DA:3409,0
DA:3410,0
DA:3415,0
DA:3435,0
DA:3437,0
DA:3442,0
DA:3448,0
DA:3450,0
DA:3455,0
DA:3464,0
DA:3465,0
DA:3472,0
DA:3491,0
DA:3495,0
DA:3501,1
DA:3503,1
DA:3506,1
DA:3509,5
DA:3511,5
DA:3516,5
DA:3518,1
DA:3527,2
DA:3531,1
DA:3620,1
DA:3630,1
DA:3632,0
DA:3650,1
DA:3655,1
DA:3669,1
DA:3673,1
DA:3675,1
DA:3684,1
DA:3700,1
DA:3710,1
DA:3711,1
DA:3712,1
DA:3729,1
DA:3743,0
DA:3752,0
DA:3755,0
DA:3758,0
DA:3769,0
DA:3774,0
DA:3776,0
DA:3783,0
DA:3790,0
DA:3791,0
DA:3795,0
DA:3798,0
DA:3801,3765
DA:3818,3765
DA:3822,3765
DA:3878,3765
DA:3946,3765
DA:3948,3765
DA:3949,3765
DA:3962,3765
DA:3965,3765
DA:3969,3765
DA:3971,3765
DA:3974,3765
DA:3976,3765
DA:3980,3751
DA:3985,0
DA:3986,0
DA:3987,0
DA:3988,0
DA:3989,0
DA:3995,0
DA:3997,0
DA:4013,3751
DA:4021,0
DA:4034,3751
DA:4036,3751
DA:4040,0
DA:4044,0
DA:4051,0
DA:4052,0
DA:4054,0
DA:4062,3751
DA:4066,0
DA:4072,0
DA:4087,3765
DA:4092,3765
DA:4096,3981
DA:4105,3981
DA:4111,3981
DA:4115,0
DA:4138,0
DA:4140,0
DA:4146,0
DA:4150,0
DA:4158,0
DA:4162,12
DA:4170,12
DA:4171,12
DA:4175,12
DA:4182,0
DA:4187,0
DA:4194,0
DA:4199,0
DA:4206,0
DA:4210,0
DA:4212,0
DA:4214,0
DA:4216,0
DA:4219,0
DA:4221,0
DA:4225,0
DA:4226,0
DA:4233,0
DA:4235,0
DA:4239,0
DA:4242,0
DA:4244,0
DA:4251,0
DA:4327,0
DA:4329,0
DA:4335,0
DA:4337,0
DA:4342,0
DA:4343,0
DA:4345,0
DA:4348,0
DA:4350,0
DA:4353,0
DA:4355,0
DA:4358,0
DA:4360,0
DA:4365,0
DA:4368,0
DA:4375,0
DA:4378,0
DA:4383,0
DA:4387,0
DA:4529,0
DA:4535,0
DA:4539,0
DA:4543,0
DA:4548,0
DA:4552,0
DA:4556,0
DA:4610,0
DA:4618,0
DA:4622,0
DA:4625,0
DA:4627,0
DA:4629,0
DA:4630,0
DA:4634,0
DA:4640,0
DA:4642,0
DA:4647,0
DA:4649,0
DA:4653,0
DA:4655,0
DA:4660,0
DA:4666,0
DA:4668,0
DA:4670,0
DA:4675,0
DA:4682,0
DA:4685,0
DA:4696,0
DA:4700,0
DA:4721,0
DA:4724,0
DA:4728,0
DA:4734,6001
DA:4738,6001
DA:4755,6001
DA:4759,6001
DA:4763,6001
DA:4765,6001
DA:4767,0
DA:4778,6001
DA:4782,1340
DA:4789,20
DA:4790,20
DA:4801,1320
DA:4802,1320
DA:4804,1320
DA:4811,580
DA:4812,580
DA:4820,740
DA:4824,740
DA:4826,720
DA:4835,740
DA:4851,740
DA:4853,740
DA:4878,6001
DA:4880,1
DA:4927,6001
DA:4929,0
DA:4971,0
DA:4984,6001
DA:4990,0
DA:4999,0
DA:5001,0
DA:5005,0
DA:5010,0
DA:5012,0
DA:5014,0
DA:5017,0
DA:5024,0
DA:5032,0
DA:5036,0
DA:5038,0
DA:5040,0
DA:5044,0
DA:5052,0
DA:5061,0
DA:5065,0
DA:5067,0
DA:5069,0
DA:5073,0
DA:5081,0
DA:5090,0
DA:5092,0
DA:5096,0
DA:5099,0
DA:5101,0
DA:5105,0
DA:5110,0
DA:5117,9702
DA:5121,9702
DA:5125,0
DA:5129,9702
DA:5137,9702
DA:5147,9702
DA:5149,5617
DA:5156,9702
DA:5175,14945
DA:5181,9702
DA:5200,9702
DA:5304,2935
DA:5309,2935
DA:5325,2935
DA:5327,2935
DA:5330,2935
DA:5333,0
DA:5339,0
DA:5343,0
DA:5348,0
DA:5355,0
DA:5357,0
DA:5360,0
DA:5365,1
DA:5371,1
DA:5383,1
DA:5388,1
DA:5390,1
DA:5394,1
DA:5397,1
DA:5402,2208
DA:5425,2208
DA:5426,2208
DA:5427,2208
DA:5429,2208
DA:5431,2208
DA:5432,2208
DA:5452,0
DA:5457,2208
DA:5462,25
DA:5466,25
DA:5470,2183
DA:5491,2208
DA:5495,0
DA:5504,0
DA:5507,0
DA:5514,0
DA:5515,0
DA:5516,0
DA:5535,0
DA:5536,0
DA:5540,0
DA:5546,0
DA:5564,0
DA:5567,0
DA:5571,0
DA:5572,0
DA:5574,0
DA:5575,0
DA:5577,0
DA:5580,0
DA:5583,3658
DA:5588,3658
DA:5589,3658
DA:5592,3658
DA:5595,3655
DA:5602,3655
DA:5603,3655
DA:5605,3655
DA:5608,3655
DA:5609,3655
DA:5612,3655
DA:5616,0
DA:5617,0
DA:5623,3655
DA:5628,2212
DA:5633,1443
DA:5640,0
DA:5641,0
DA:5643,1443
DA:5646,723
DA:5647,723
DA:5648,723
DA:5652,720
DA:5653,720
DA:5656,3655
DA:5660,3655
DA:5664,0
DA:5669,0
DA:5672,0
DA:5809,28528779754
DA:5834,28528779754
DA:5858,28528779753
DA:5860,0
DA:6072,1
DA:6076,21
DA:6078,20
DA:6081,1
DA:6082,1
DA:6083,1
DA:6087,1
DA:6093,1
DA:6099,1
DA:6100,1
DA:6101,1
DA:6104,28528779754
DA:6114,28528779754
DA:6118,0
DA:6124,0
DA:6125,0
DA:6126,0
DA:6127,0
DA:6130,0
DA:6132,0
DA:6177,28528779754
DA:6467,0
DA:6472,0
DA:6485,0
DA:6486,0
DA:6515,0
DA:6520,0
DA:6522,0
DA:6528,0
DA:6536,0
DA:6538,0
DA:6544,26149
DA:6553,26149
DA:6557,26149
DA:6579,0
DA:6581,0
DA:6585,0
DA:6588,0
DA:6596,0
DA:6604,22819
DA:6610,22819
DA:6612,15
DA:6620,22804
DA:6622,22804
DA:6626,0
DA:6636,22819
DA:6644,4
DA:6646,4
DA:6647,4
DA:6653,4
DA:6658,4
DA:6663,4
DA:6665,4
DA:6674,4
DA:6676,4
DA:6689,4
DA:6690,4
DA:6705,0
DA:6711,4
DA:6715,0
DA:6724,0
DA:6739,4
DA:6747,7754
DA:6749,7754
DA:6750,7754
DA:6754,7754
DA:6760,7739
DA:6761,7739
DA:6762,7739
DA:6766,7739
DA:6769,4
DA:6776,4
DA:6788,4
DA:6793,4
DA:6794,4
DA:6814,4
DA:6833,7754
DA:6841,0
DA:6844,0
DA:6846,0
DA:6850,0
DA:6854,0
DA:6860,0
DA:6862,0
DA:6866,0
DA:6870,0
DA:6876,0
DA:6881,0
DA:6887,0
DA:6888,0
DA:6892,0
DA:6894,0
DA:6907,0
DA:6909,0
DA:6921,0
DA:6954,0
DA:7633,0
DA:7639,0
DA:7643,0
DA:7647,0
DA:7653,7739
DA:7659,7739
DA:7663,7739
DA:7665,7739
DA:7670,7739
DA:7678,0
DA:7683,0
DA:7687,0
DA:7691,0
DA:7697,0
DA:7700,0
DA:7703,0
DA:7705,0
DA:7707,0
DA:7719,0
DA:7724,0
DA:7727,0
DA:7734,0
DA:7737,0
DA:7739,0
DA:7746,0
DA:7749,0
DA:7751,0
DA:7753,0
DA:7755,0
DA:7759,0
DA:7767,0
DA:7769,0
DA:7773,0
DA:7781,0
DA:7787,0
DA:7791,0
DA:7795,0
DA:7800,0
DA:7803,0
DA:7808,0
DA:7811,0
DA:7813,0
DA:7815,0
DA:7827,0
DA:7832,0
DA:7835,0
DA:7842,0
DA:7845,0
DA:7847,0
DA:7854,0
DA:7858,0
DA:7862,0
DA:7869,0
DA:7872,0
DA:7878,0
DA:7879,0
DA:7882,0
DA:7884,0
DA:7888,0
DA:7896,0
DA:7903,0
DA:7908,0
DA:7909,0
DA:7910,0
DA:7912,0
DA:7914,0
DA:7916,0
DA:7919,0
DA:7921,0
DA:7923,0
DA:7925,0
DA:7926,0
DA:7927,0
DA:7929,0
DA:7930,0
DA:7931,0
DA:7933,0
DA:7934,0
DA:7935,0
DA:7937,0
DA:7939,0
DA:7941,0
DA:7946,0
DA:7949,0
DA:7951,0
DA:7955,0
DA:7957,0
DA:7962,0
DA:7964,0
DA:7971,0
DA:7973,0
DA:7974,0
DA:7977,0
DA:7997,0
DA:8004,0
DA:8008,0
DA:8016,0
DA:8025,0
DA:8030,0
DA:8031,0
DA:8051,0
DA:8053,0
DA:8055,0
DA:8057,0
DA:8060,0
DA:8061,0
DA:8063,0
DA:8065,0
DA:8066,0
DA:8067,0
DA:8069,0
DA:8070,0
DA:8071,0
DA:8073,0
DA:8074,0
DA:8075,0
DA:8077,0
DA:8079,0
DA:8081,0
DA:8086,0
DA:8089,0
DA:8091,0
DA:8095,0
DA:8097,0
DA:8102,0
DA:8103,0
DA:8110,0
DA:8113,0
DA:8115,0
DA:8117,0
DA:8118,0
DA:8124,0
DA:8129,0
DA:8133,0
DA:8135,0
DA:8141,0
DA:8167,0
DA:8171,0
DA:8179,0
DA:8189,0
DA:8190,0
DA:8210,0
DA:8212,0
DA:8214,0
DA:8215,0
DA:8219,0
DA:8225,0
DA:8228,0
DA:8230,0
DA:8232,0
DA:8233,0
DA:8239,0
DA:8244,0
DA:8248,0
DA:8250,0
DA:8256,0
DA:8282,0
DA:8285,0
DA:8292,0
DA:8300,0
DA:8304,0
DA:8306,0
DA:8308,0
DA:8310,0
DA:8311,0
DA:8315,0
DA:8318,0
DA:8322,0
DA:8330,0
DA:8339,0
DA:8343,0
DA:8345,0
DA:8349,0
DA:8350,0
DA:8352,0
DA:8356,0
DA:8364,0
DA:8370,0
DA:8374,0
DA:8382,0
DA:8389,0
DA:8392,0
DA:8395,0
DA:8397,0
DA:8398,0
DA:8402,0
DA:8407,0
DA:8415,0
DA:8417,0
DA:8422,0
DA:8424,0
DA:8429,0
DA:8437,0
DA:8440,0
DA:8445,0
DA:8448,0
DA:8451,0
DA:8453,0
DA:8455,0
DA:8458,0
DA:8462,0
DA:8467,0
DA:8473,2956
DA:8477,2956
DA:8478,2956
DA:8479,2956
DA:8486,2956
DA:8492,2956
DA:8505,2956
DA:8510,2213
DA:8517,743
DA:8520,743
DA:8522,743
DA:8527,0
DA:8534,743
DA:8539,743
DA:8541,542
DA:8589,2956
end_of_record
TN:
SF:/home/atcsol/git/JOSE_PHOTOSAT/uah_photsat_freertos/llsw/freertos_osswr/Source/list.c
FN:49,vListInitialise
FNDA:145,vListInitialise
FN:89,vListInitialiseItem
FNDA:24,vListInitialiseItem
FN:105,vListInsertEnd
FNDA:0,vListInsertEnd
FN:139,vListInsert
FNDA:3678,vListInsert
FN:215,uxListRemove
FNDA:4407,uxListRemove
DA:49,145
DA:56,145
DA:62,145
DA:66,145
DA:67,145
DA:78,145
DA:86,145
DA:89,24
DA:94,24
DA:102,24
DA:105,0
DA:108,0
DA:121,0
DA:122,0
DA:127,0
DA:128,0
DA:131,0
DA:133,0
DA:136,0
DA:139,3678
DA:143,3678
DA:161,3678
DA:163,0
DA:192,4099
DA:199,3678
DA:200,3678
DA:201,3678
DA:202,3678
DA:206,3678
DA:208,3678
DA:211,3678
DA:215,4407
DA:219,4407
DA:223,4407
DA:224,4407
DA:230,4407
DA:232,3683
DA:239,4407
DA:240,4407
DA:244,4407
end_of_record
TN:
SF:/home/atcsol/git/JOSE_PHOTOSAT/uah_photsat_freertos/llsw/freertos_osswr/Source/stream_buffer.c
FN:324,xStreamBufferGenericCreate
FNDA:0,xStreamBufferGenericCreate
FN:538,vStreamBufferDelete
FNDA:0,vStreamBufferDelete
FN:575,xStreamBufferReset
FNDA:0,xStreamBufferReset
FN:636,xStreamBufferSetTriggerLevel
FNDA:0,xStreamBufferSetTriggerLevel
FN:670,xStreamBufferSpacesAvailable
FNDA:0,xStreamBufferSpacesAvailable
FN:707,xStreamBufferBytesAvailable
FNDA:0,xStreamBufferBytesAvailable
FN:724,xStreamBufferSend
FNDA:0,xStreamBufferSend
FN:859,xStreamBufferSendFromISR
FNDA:0,xStreamBufferSendFromISR
FN:913,prvWriteMessageToBuffer
FNDA:0,prvWriteMessageToBuffer
FN:966,xStreamBufferReceive
FNDA:0,xStreamBufferReceive
FN:1074,xStreamBufferNextMessageLengthBytes
FNDA:0,xStreamBufferNextMessageLengthBytes
FN:1118,xStreamBufferReceiveFromISR
FNDA:0,xStreamBufferReceiveFromISR
FN:1178,prvReadMessageFromBuffer
FNDA:0,prvReadMessageFromBuffer
FN:1233,xStreamBufferIsEmpty
FNDA:0,xStreamBufferIsEmpty
FN:1261,xStreamBufferIsFull
FNDA:0,xStreamBufferIsFull
FN:1300,xStreamBufferSendCompletedFromISR
FNDA:0,xStreamBufferSendCompletedFromISR
FN:1336,xStreamBufferReceiveCompletedFromISR
FNDA:0,xStreamBufferReceiveCompletedFromISR
FN:1372,prvWriteBytesToBuffer
FNDA:0,prvWriteBytesToBuffer
FN:1418,prvReadBytesFromBuffer
FNDA:0,prvReadBytesFromBuffer
FN:1462,prvBytesInBuffer
FNDA:0,prvBytesInBuffer
FN:1483,prvInitialiseNewStreamBuffer
FNDA:0,prvInitialiseNewStreamBuffer
FN:1531,uxStreamBufferGetStreamBufferNotificationIndex
FNDA:0,uxStreamBufferGetStreamBufferNotificationIndex
FN:1545,vStreamBufferSetStreamBufferNotificationIndex
FNDA:0,vStreamBufferSetStreamBufferNotificationIndex
DA:324,0
DA:339,0
DA:342,0
DA:343,0
DA:348,0
DA:349,0
DA:352,0
DA:356,0
DA:358,0
DA:369,0
DA:371,0
DA:372,0
DA:376,0
DA:379,0
DA:384,0
DA:407,0
DA:538,0
DA:540,0
DA:544,0
DA:548,0
DA:554,0
DA:568,0
DA:572,0
DA:575,0
DA:577,0
DA:578,0
DA:579,0
DA:587,0
DA:598,0
DA:600,0
DA:609,0
DA:613,0
DA:625,0
DA:628,0
DA:632,0
DA:636,0
DA:639,0
DA:644,0
DA:647,0
DA:649,0
DA:654,0
DA:656,0
DA:657,0
DA:661,0
DA:666,0
DA:670,0
DA:672,0
DA:678,0
DA:685,0
DA:686,0
DA:687,0
DA:688,0
DA:690,0
DA:692,0
DA:694,0
DA:703,0
DA:707,0
DA:709,0
DA:714,0
DA:716,0
DA:720,0
DA:724,0
DA:729,0
DA:730,0
DA:731,0
DA:733,0
DA:737,0
DA:738,0
DA:742,0
DA:748,0
DA:750,0
DA:753,0
DA:757,0
DA:761,0
DA:773,0
DA:775,0
DA:783,0
DA:785,0
DA:791,0
DA:793,0
DA:795,0
DA:798,0
DA:801,0
DA:802,0
DA:806,0
DA:807,0
DA:810,0
DA:813,0
DA:814,0
DA:815,0
DA:822,0
DA:824,0
DA:831,0
DA:833,0
DA:838,0
DA:840,0
DA:855,0
DA:859,0
DA:864,0
DA:866,0
DA:870,0
DA:871,0
DA:877,0
DA:879,0
DA:886,0
DA:887,0
DA:889,0
DA:892,0
DA:894,0
DA:909,0
DA:913,0
DA:919,0
DA:922,0
DA:927,0
DA:930,0
DA:932,0
DA:937,0
DA:942,0
DA:950,0
DA:953,0
DA:959,0
DA:962,0
DA:966,0
DA:971,0
DA:972,0
DA:976,0
DA:977,0
DA:984,0
DA:986,0
DA:990,0
DA:993,0
DA:997,0
DA:999,0
DA:1006,0
DA:1009,0
DA:1012,0
DA:1013,0
DA:1020,0
DA:1022,0
DA:1026,0
DA:1027,0
DA:1030,0
DA:1039,0
DA:1047,0
DA:1049,0
DA:1052,0
DA:1055,0
DA:1070,0
DA:1074,0
DA:1076,0
DA:1082,0
DA:1085,0
DA:1087,0
DA:1089,0
DA:1094,0
DA:1095,0
DA:1103,0
DA:1104,0
DA:1109,0
DA:1114,0
DA:1118,0
DA:1123,0
DA:1124,0
DA:1128,0
DA:1129,0
DA:1136,0
DA:1138,0
DA:1142,0
DA:1145,0
DA:1152,0
DA:1154,0
DA:1157,0
DA:1159,0
DA:1174,0
DA:1178,0
DA:1185,0
DA:1187,0
DA:1191,0
DA:1192,0
DA:1196,0
DA:1200,0
DA:1203,0
DA:1214,0
DA:1218,0
DA:1220,0
DA:1226,0
DA:1229,0
DA:1233,0
DA:1235,0
DA:1241,0
DA:1244,0
DA:1246,0
DA:1248,0
DA:1252,0
DA:1257,0
DA:1261,0
DA:1265,0
DA:1269,0
DA:1275,0
DA:1277,0
DA:1281,0
DA:1285,0
DA:1287,0
DA:1291,0
DA:1296,0
DA:1300,0
DA:1303,0
DA:1309,0
DA:1311,0
DA:1313,0
DA:1315,0
DA:1320,0
DA:1321,0
DA:1325,0
DA:1328,0
DA:1332,0
DA:1336,0
DA:1339,0
DA:1345,0
DA:1347,0
DA:1349,0
DA:1351,0
DA:1356,0
DA:1357,0
DA:1361,0
DA:1364,0
DA:1368,0
DA:1372,0
DA:1379,0
DA:1384,0
DA:1387,0
DA:1388,0
DA:1392,0
DA:1395,0
DA:1396,0
DA:1403,0
DA:1405,0
DA:1407,0
DA:1414,0
DA:1418,0
DA:1425,0
DA:1430,0
DA:1434,0
DA:1435,0
DA:1436,0
DA:1440,0
DA:1443,0
DA:1451,0
DA:1453,0
DA:1455,0
DA:1458,0
DA:1462,0
DA:1467,0
DA:1468,0
DA:1470,0
DA:1472,0
DA:1479,0
DA:1483,0
DA:1500,0
DA:1504,0
DA:1505,0
DA:1506,0
DA:1507,0
DA:1508,0
DA:1509,0
DA:1528,0
DA:1531,0
DA:1533,0
DA:1537,0
DA:1541,0
DA:1545,0
DA:1548,0
DA:1552,0
DA:1555,0
DA:1556,0
DA:1559,0
DA:1561,0
DA:1564,0
end_of_record
TN:
SF:/home/atcsol/git/JOSE_PHOTOSAT/uah_photsat_freertos/llsw/freertos_osswr/Source/timers.c
FN:237,xTimerCreateTimerTask
FNDA:1,xTimerCreateTimerTask
FN:336,xTimerCreate
FNDA:0,xTimerCreate
FN:417,prvInitialiseNewTimer
FNDA:0,prvInitialiseNewTimer
FN:448,xTimerGenericCommandFromTask
FNDA:0,xTimerGenericCommandFromTask
FN:499,xTimerGenericCommandFromISR
FNDA:0,xTimerGenericCommandFromISR
FN:543,xTimerGetTimerDaemonTaskHandle
FNDA:0,xTimerGetTimerDaemonTaskHandle
FN:557,xTimerGetPeriod
FNDA:0,xTimerGetPeriod
FN:571,vTimerSetReloadMode
FNDA:0,vTimerSetReloadMode
FN:596,xTimerGetReloadMode
FNDA:0,xTimerGetReloadMode
FN:624,uxTimerGetReloadMode
FNDA:0,uxTimerGetReloadMode
FN:638,xTimerGetExpiryTime
FNDA:0,xTimerGetExpiryTime
FN:685,pcTimerGetName
FNDA:0,pcTimerGetName
FN:699,prvReloadTimer
FNDA:0,prvReloadTimer
FN:718,prvProcessExpiredTimer
FNDA:0,prvProcessExpiredTimer
FN:748,prvTimerTask
FNDA:1,prvTimerTask
FN:782,prvProcessTimerOrBlockTask
FNDA:1,prvProcessTimerOrBlockTask
FN:844,prvGetNextExpireTime
FNDA:1,prvGetNextExpireTime
FN:871,prvSampleTimeNow
FNDA:1,prvSampleTimeNow
FN:894,prvInsertTimerInActiveList
FNDA:0,prvInsertTimerInActiveList
FN:938,prvProcessReceivedCommands
FNDA:0,prvProcessReceivedCommands
FN:1086,prvSwitchTimerLists
FNDA:0,prvSwitchTimerLists
FN:1111,prvCheckForValidListAndQueue
FNDA:1,prvCheckForValidListAndQueue
FN:1162,xTimerIsTimerActive
FNDA:0,xTimerIsTimerActive
FN:1191,pvTimerGetTimerID
FNDA:0,pvTimerGetTimerID
FN:1212,vTimerSetTimerID
FNDA:0,vTimerSetTimerID
FN:1233,xTimerPendFunctionCallFromISR
FNDA:0,xTimerPendFunctionCallFromISR
FN:1263,xTimerPendFunctionCall
FNDA:0,xTimerPendFunctionCall
DA:237,1
DA:239,1
DA:247,1
DA:249,1
DA:310,1
DA:326,1
DA:330,1
DA:336,0
DA:349,0
DA:351,0
DA:356,0
DA:357,0
DA:362,0
DA:417,0
DA:425,0
DA:429,0
DA:433,0
DA:434,0
DA:435,0
DA:436,0
DA:437,0
DA:439,0
DA:441,0
DA:445,0
DA:448,0
DA:454,0
DA:461,0
DA:465,0
DA:468,0
DA:469,0
DA:470,0
DA:472,0
DA:474,0
DA:476,0
DA:478,0
DA:482,0
DA:495,0
DA:499,0
DA:505,0
DA:512,0
DA:516,0
DA:519,0
DA:520,0
DA:521,0
DA:523,0
DA:525,0
DA:527,0
DA:539,0
DA:543,0
DA:549,0
DA:553,0
DA:557,0
DA:559,0
DA:563,0
DA:567,0
DA:571,0
DA:574,0
DA:578,0
DA:579,0
DA:581,0
DA:583,0
DA:587,0
DA:590,0
DA:593,0
DA:596,0
DA:598,0
DA:603,0
DA:604,0
DA:606,0
DA:609,0
DA:614,0
DA:617,0
DA:621,0
DA:624,0
DA:630,0
DA:634,0
DA:638,0
DA:640,0
DA:645,0
DA:646,0
DA:650,0
DA:685,0
DA:687,0
DA:691,0
DA:695,0
DA:699,0
DA:706,0
DA:709,0
DA:713,0
DA:715,0
DA:718,0
DA:724,0
DA:729,0
DA:733,0
DA:735,0
DA:739,0
DA:744,0
DA:745,0
DA:748,1
DA:770,1
DA:774,1
DA:777,0
DA:782,1
DA:788,1
DA:795,1
DA:797,1
DA:800,1
DA:802,0
DA:803,0
DA:813,1
DA:817,1
DA:820,1
DA:822,1
DA:828,1
DA:838,0
DA:841,0
DA:844,1
DA:855,1
DA:857,1
DA:859,0
DA:864,1
DA:867,1
DA:871,1
DA:876,1
DA:878,1
DA:880,0
DA:881,0
DA:885,1
DA:888,1
DA:890,1
DA:894,0
DA:899,0
DA:901,0
DA:902,0
DA:904,0
DA:908,0
DA:912,0
DA:916,0
DA:921,0
DA:926,0
DA:930,0
DA:934,0
DA:938,0
DA:940,0
DA:945,0
DA:951,0
DA:953,0
DA:957,0
DA:960,0
DA:971,0
DA:975,0
DA:977,0
DA:980,0
DA:995,0
DA:997,0
DA:999,0
DA:1004,0
DA:1006,0
DA:1010,0
DA:1012,0
DA:1016,0
DA:1021,0
DA:1028,0
DA:1030,0
DA:1033,0
DA:1034,0
DA:1036,0
DA:1038,0
DA:1039,0
DA:1040,0
DA:1048,0
DA:1049,0
DA:1051,0
DA:1057,0
DA:1059,0
DA:1063,0
DA:1075,0
DA:1077,0
DA:1079,0
DA:1083,0
DA:1086,0
DA:1095,0
DA:1097,0
DA:1102,0
DA:1105,0
DA:1106,0
DA:1107,0
DA:1108,0
DA:1111,1
DA:1116,1
DA:1118,1
DA:1120,1
DA:1121,1
DA:1122,1
DA:1123,1
DA:1136,1
DA:1142,1
DA:1144,1
DA:1158,1
DA:1159,1
DA:1162,0
DA:1165,0
DA:1169,0
DA:1172,0
DA:1174,0
DA:1176,0
DA:1180,0
DA:1183,0
DA:1187,0
DA:1191,0
DA:1193,0
DA:1198,0
DA:1200,0
DA:1202,0
DA:1204,0
DA:1208,0
DA:1212,0
DA:1215,0
DA:1219,0
DA:1221,0
DA:1223,0
DA:1225,0
DA:1228,0
DA:1233,0
DA:1245,0
DA:1246,0
DA:1247,0
DA:1248,0
DA:1250,0
DA:1255,0
DA:1263,0
DA:1276,0
DA:1280,0
DA:1281,0
DA:1282,0
DA:1283,0
DA:1285,0
DA:1290,0
end_of_record
TN:
SF:/home/atcsol/git/JOSE_PHOTOSAT/uah_photsat_freertos/llsw/freertos_osswr/Source/portable/ThirdParty/GCC/Posix/port.c
FN:96,prvGetThreadFromTask
FNDA:25406,prvGetThreadFromTask
FN:131,prvFatalError
FNDA:0,prvFatalError
FN:139,prvPortSetCurrentThreadName
FNDA:14,prvPortSetCurrentThreadName
FN:152,pxPortInitialiseStack
FNDA:12,pxPortInitialiseStack
FN:213,vPortStartFirstTask
FNDA:1,vPortStartFirstTask
FN:225,xPortStartScheduler
FNDA:1,xPortStartScheduler
FN:277,vPortEndScheduler
FNDA:0,vPortEndScheduler
FN:296,vPortEnterCritical
FNDA:53022,vPortEnterCritical
FN:307,vPortExitCritical
FNDA:53011,vPortExitCritical
FN:319,prvPortYieldFromISR
FNDA:3701,prvPortYieldFromISR
FN:334,vPortYield
FNDA:3701,vPortYield
FN:344,vPortDisableInterrupts
FNDA:52276,vPortDisableInterrupts
FN:350,vPortEnableInterrupts
FNDA:52277,vPortEnableInterrupts
FN:356,xPortSetInterruptMask
FNDA:0,xPortSetInterruptMask
FN:364,vPortClearInterruptMask
FNDA:0,vPortClearInterruptMask
FN:370,prvGetTimeNs
FNDA:1,prvGetTimeNs
FN:384,prvTimerTickHandler
FNDA:1,prvTimerTickHandler
FN:409,prvSetupTimerInterrupt
FNDA:1,prvSetupTimerInterrupt
FN:418,vPortSystemTickHandler
FNDA:6001,vPortSystemTickHandler
FN:460,vPortThreadDying
FNDA:0,vPortThreadDying
FN:471,vPortCancelThread
FNDA:0,vPortCancelThread
FN:485,prvWaitForStart
FNDA:12,prvWaitForStart
FN:512,prvSwitchThread
FNDA:9702,prvSwitchThread
FN:542,prvSuspendSelf
FNDA:3714,prvSuspendSelf
FN:563,prvResumeThread
FNDA:3703,prvResumeThread
FN:572,prvSetupSignalsAndSchedulerPolicy
FNDA:1,prvSetupSignalsAndSchedulerPolicy
FN:610,ulPortGetRunTime
FNDA:9702,ulPortGetRunTime
DA:96,25406
DA:98,25406
DA:100,25406
DA:131,0
DA:134,0
DA:135,0
DA:139,14
DA:144,14
DA:146,14
DA:152,12
DA:162,12
DA:167,12
DA:168,12
DA:174,12
DA:180,12
DA:181,12
DA:182,12
DA:185,12
DA:187,12
DA:188,12
DA:190,12
DA:192,0
DA:195,12
DA:197,12
DA:199,12
DA:202,12
DA:204,0
DA:207,12
DA:209,12
DA:213,1
DA:215,1
DA:218,1
DA:219,1
DA:225,1
DA:230,1
DA:231,1
DA:235,1
DA:242,1
DA:243,1
DA:244,1
DA:247,1
DA:250,1
DA:252,1
DA:259,0
DA:267,0
DA:271,0
DA:273,0
DA:277,0
DA:282,0
DA:283,0
DA:286,0
DA:287,0
DA:290,0
DA:291,0
DA:292,0
DA:293,0
DA:296,53022
DA:298,53022
DA:300,52275
DA:303,53022
DA:304,53022
DA:307,53011
DA:309,53011
DA:312,53011
DA:314,52265
DA:316,53011
DA:319,3701
DA:324,3701
DA:326,3701
DA:328,3701
DA:330,3701
DA:331,3691
DA:334,3701
DA:336,3701
DA:338,3701
DA:340,3691
DA:341,3691
DA:344,52276
DA:346,52276
DA:347,52276
DA:350,52277
DA:352,52277
DA:353,52277
DA:356,0
DA:360,0
DA:364,0
DA:367,0
DA:370,1
DA:374,1
DA:376,1
DA:384,1
DA:388,1
DA:390,6001
DA:396,6001
DA:397,6001
DA:398,6001
DA:401,0
DA:409,1
DA:411,1
DA:412,1
DA:414,1
DA:415,1
DA:418,6001
DA:427,6001
DA:430,6001
DA:441,6001
DA:449,6001
DA:451,6001
DA:453,6001
DA:456,6000
DA:457,6000
DA:460,0
DA:463,0
DA:467,0
DA:468,0
DA:471,0
DA:473,0
DA:478,0
DA:479,0
DA:480,0
DA:481,0
DA:482,0
DA:485,12
DA:487,12
DA:489,12
DA:492,12
DA:493,12
DA:496,12
DA:499,12
DA:506,0
DA:512,9702
DA:517,9702
DA:526,3702
DA:528,3702
DA:530,3702
DA:532,0
DA:535,3702
DA:537,3691
DA:539,9691
DA:542,3714
DA:557,3714
DA:558,3703
DA:559,3703
DA:563,3703
DA:565,3703
DA:567,3703
DA:569,3703
DA:572,1
DA:577,1
DA:580,1
DA:584,1
DA:593,1
DA:597,1
DA:598,1
DA:599,1
DA:601,1
DA:603,1
DA:605,0
DA:607,1
DA:610,9702
DA:614,9702
DA:616,9702
end_of_record
TN:
SF:/home/atcsol/git/JOSE_PHOTOSAT/uah_photsat_freertos/llsw/freertos_osswr/Source/portable/ThirdParty/GCC/Posix/utils/wait_for_event.c
FN:42,event_create
FNDA:12,event_create
FN:52,event_delete
FNDA:0,event_delete
FN:59,event_wait
FNDA:3714,event_wait
FN:72,event_wait_timed
FNDA:0,event_wait_timed
FN:98,event_signal
FNDA:3703,event_signal
DA:42,12
DA:44,12
DA:46,12
DA:47,12
DA:48,12
DA:49,12
DA:52,0
DA:54,0
DA:55,0
DA:56,0
DA:57,0
DA:59,3714
DA:61,3714
DA:63,7170
DA:65,3467
DA:68,3703
DA:69,3703
DA:70,3703
DA:72,0
DA:76,0
DA:78,0
DA:79,0
DA:80,0
DA:81,0
DA:83,0
DA:85,0
DA:87,0
DA:89,0
DA:93,0
DA:94,0
DA:95,0
DA:98,3703
DA:100,3703
DA:101,3703
DA:102,3703
DA:103,3703
DA:104,3703
end_of_record
TN:
SF:/home/atcsol/git/JOSE_PHOTOSAT/uah_photsat_freertos/llsw/freertos_osswr/Source/portable/ThirdParty/GCC/Posix/MemMang/heap_3.c
FN:96,pvPortMalloc
FNDA:83,pvPortMalloc
FN:121,vPortFree
FNDA:6,vPortFree
DA:96,83
DA:100,83
DA:102,83
DA:105,83
DA:117,83
DA:121,6
DA:123,6
DA:125,6
DA:127,6
DA:130,6
DA:132,6
end_of_record
TN:
SF:/home/atcsol/git/JOSE_PHOTOSAT/uah_photsat_freertos/llsw/freertos_osswr/Source/event_groups.c
FN:139,xEventGroupCreate
FNDA:0,xEventGroupCreate
FN:179,xEventGroupSync
FNDA:0,xEventGroupSync
FN:306,xEventGroupWaitBits
FNDA:0,xEventGroupWaitBits
FN:466,xEventGroupClearBits
FNDA:0,xEventGroupClearBits
FN:518,xEventGroupGetBitsFromISR
FNDA:0,xEventGroupGetBitsFromISR
FN:538,xEventGroupSetBits
FNDA:0,xEventGroupSetBits
FN:638,vEventGroupDelete
FNDA:0,vEventGroupDelete
FN:736,vEventGroupSetBitsCallback
FNDA:0,vEventGroupSetBitsCallback
FN:752,vEventGroupClearBitsCallback
FNDA:0,vEventGroupClearBitsCallback
FN:766,prvTestWaitCondition
FNDA:0,prvTestWaitCondition
DA:139,0
DA:148,0
DA:150,0
DA:152,0
DA:153,0
DA:173,0
DA:179,0
DA:185,0
DA:187,0
DA:191,0
DA:192,0
DA:195,0
DA:199,0
DA:201,0
DA:203,0
DA:205,0
DA:208,0
DA:212,0
DA:214,0
DA:218,0
DA:225,0
DA:231,0
DA:237,0
DA:238,0
DA:242,0
DA:244,0
DA:246,0
DA:248,0
DA:259,0
DA:261,0
DA:264,0
DA:266,0
DA:272,0
DA:274,0
DA:281,0
DA:283,0
DA:292,0
DA:302,0
DA:306,0
DA:312,0
DA:313,0
DA:315,0
DA:321,0
DA:322,0
DA:323,0
DA:326,0
DA:330,0
DA:332,0
DA:335,0
DA:337,0
DA:341,0
DA:342,0
DA:345,0
DA:347,0
DA:354,0
DA:358,0
DA:359,0
DA:367,0
DA:369,0
DA:376,0
DA:378,0
DA:388,0
DA:393,0
DA:398,0
DA:400,0
DA:402,0
DA:404,0
DA:415,0
DA:417,0
DA:419,0
DA:422,0
DA:426,0
DA:428,0
DA:430,0
DA:442,0
DA:444,0
DA:452,0
DA:462,0
DA:466,0
DA:469,0
DA:476,0
DA:477,0
DA:479,0
DA:485,0
DA:488,0
DA:490,0
DA:494,0
DA:518,0
DA:521,0
DA:526,0
DA:528,0
DA:530,0
DA:534,0
DA:538,0
DA:545,0
DA:546,0
DA:547,0
DA:553,0
DA:554,0
DA:556,0
DA:557,0
DA:558,0
DA:562,0
DA:565,0
DA:568,0
DA:570,0
DA:571,0
DA:572,0
DA:575,0
DA:576,0
DA:578,0
DA:581,0
DA:583,0
DA:590,0
DA:593,0
DA:600,0
DA:603,0
DA:605,0
DA:617,0
DA:623,0
DA:628,0
DA:630,0
DA:634,0
DA:638,0
DA:640,0
DA:645,0
DA:647,0
DA:649,0
DA:653,0
DA:657,0
DA:658,0
DA:661,0
DA:667,0
DA:685,0
DA:736,0
DA:744,0
DA:747,0
DA:752,0
DA:760,0
DA:763,0
DA:766,0
DA:770,0
DA:772,0
DA:776,0
DA:778,0
DA:789,0
DA:791,0
DA:799,0
end_of_record
TN:
SF:/home/atcsol/git/JOSE_PHOTOSAT/uah_photsat_freertos/service_libraries/edroomsl/edroombp/include/public/edroombp.h
FN:192,_ZN12Pr_SemaphoreD2Ev
FNDA:0,_ZN12Pr_SemaphoreD2Ev
FN:310,_ZN15Pr_SemaphoreRec4WaitEv
FNDA:0,_ZN15Pr_SemaphoreRec4WaitEv
FN:319,_ZN15Pr_SemaphoreRec6SignalEv
FNDA:0,_ZN15Pr_SemaphoreRec6SignalEv
FN:337,_ZN15Pr_SemaphoreRecD2Ev
FNDA:0,_ZN15Pr_SemaphoreRecD2Ev
DA:192,0
DA:194,0
DA:195,0
DA:310,0
DA:319,0
DA:337,0
end_of_record
SF:/home/atcsol/git/JOSE_PHOTOSAT/uah_photsat_freertos/llsw/emu_sc_channel_drv/src/emu_sc_channel_drv.cpp
FN:39,_Z14RXLockFunctionv
FNDA:45,_Z14RXLockFunctionv
FN:42,_Z16RXUnlockFunctionv
FNDA:45,_Z16RXUnlockFunctionv
FN:48,_Z14TXLockFunctionv
FNDA:100,_Z14TXLockFunctionv
FN:51,_Z16TXUnlockFunctionv
FNDA:100,_Z16TXUnlockFunctionv
FN:55,SC_Channel_Init
FNDA:1,SC_Channel_Init
FN:61,_Z17SC_Channel_RxDatav
FNDA:0,_Z17SC_Channel_RxDatav
FN:66,_Z20SC_Channel_GetNextTCR17CDTCMemDescriptor
FNDA:9,_Z20SC_Channel_GetNextTCR17CDTCMemDescriptor
FN:87,_Z27SC_Channel_HandlePendingTCsv
FNDA:9,_Z27SC_Channel_HandlePendingTCsv
FN:95,SC_Channel_TxTM
FNDA:100,SC_Channel_TxTM
DA:39,45
DA:40,45
DA:41,45
DA:42,45
DA:43,45
DA:44,45
DA:48,100
DA:49,100
DA:50,100
DA:51,100
DA:52,100
DA:53,100
DA:55,1
DA:56,1
DA:58,1
DA:59,1
DA:61,0
DA:63,0
DA:66,9
DA:72,9
DA:74,9
DA:75,9
DA:77,192
DA:78,183
DA:82,9
DA:85,9
DA:87,9
DA:90,9
DA:92,0
DA:93,9
DA:95,100
DA:98,100
DA:99,100
DA:100,100
DA:103,100
end_of_record
TN:
SF:/home/atcsol/git/JOSE_PHOTOSAT/uah_photsat_freertos/llsw/emu_adc_drv/src/emu_adc_drv.c
FN:51,get_noise
FNDA:305,get_noise
FN:60,sample_adc_channel
FNDA:305,sample_adc_channel
FN:77,sample_sys_data_pool_params
FNDA:60,sample_sys_data_pool_params
FN:87,init_adc_channel
FNDA:1,init_adc_channel
DA:51,305
DA:54,305
DA:57,305
DA:60,305
DA:62,305
DA:64,305
DA:66,305
DA:68,305
DA:72,305
DA:77,60
DA:79,360
DA:81,300
DA:85,60
DA:87,1
DA:89,6
DA:91,5
DA:110,1
end_of_record
TN:
SF:/home/atcsol/git/JOSE_PHOTOSAT/uah_photsat_freertos/llsw/emu_watchdog_drv/src/watchdog_drv.c
FN:13,watchdog_drv_startup
FNDA:0,watchdog_drv_startup
FN:19,watchdog_drv_disable_signal
FNDA:1,watchdog_drv_disable_signal
FN:25,watchdog_drv_signal
FNDA:0,watchdog_drv_signal
DA:13,0
DA:17,0
DA:19,1
DA:21,1
DA:22,1
DA:25,0
DA:29,0
end_of_record
TN:
SF:/home/atcsol/git/JOSE_PHOTOSAT/uah_photsat_freertos/llsw/device_drv/src/emu_device_drv.c
FN:14,device_drv_on_off
FNDA:0,device_drv_on_off
FN:28,device_drv_is_on_off_address_valid
FNDA:0,device_drv_is_on_off_address_valid
DA:14,0
DA:16,0
DA:18,0
DA:19,0
DA:20,0
DA:21,0
DA:23,0
DA:25,0
DA:28,0
DA:30,0
DA:32,0
DA:33,0
DA:34,0
DA:35,0
DA:37,0
end_of_record
TN:
SF:/home/atcsol/git/JOSE_PHOTOSAT/uah_photsat_freertos/llsw/obt_drv/src/obt_drv.c
FN:31,obt_drv_get_current_obt
FNDA:106,obt_drv_get_current_obt
FN:37,obt_drv_set_current_obt
FNDA:0,obt_drv_set_current_obt
FN:44,obt_drv_get_current_finetime_16bits
FNDA:100,obt_drv_get_current_finetime_16bits
DA:31,106
DA:33,106
DA:37,0
DA:40,0
DA:42,0
DA:44,100
DA:46,100
end_of_record
TN:
SF:/home/atcsol/git/JOSE_PHOTOSAT/uah_photsat_freertos/llsw/emu_sat_attitude/src/emu_sat_attitude.cpp
FN:26,emu_attitude_init
FNDA:1,emu_attitude_init
FN:37,emu_attitude_apply_ctrl
FNDA:600,emu_attitude_apply_ctrl
FN:45,emu_attitude_get_state
FNDA:600,emu_attitude_get_state
DA:26,1
DA:28,1
DA:29,1
DA:30,1
DA:31,1
DA:32,1
DA:33,1
DA:34,1
DA:35,1
DA:37,600
DA:39,600
DA:40,600
DA:43,600
DA:45,600
DA:47,600
DA:53,600
DA:54,600
DA:55,600
DA:58,600
DA:61,600
DA:62,600
DA:65,600
DA:66,600
DA:67,600
DA:68,600
DA:71,600
DA:72,600
DA:73,600
DA:74,600
DA:77,600
end_of_record
TN:
SF:/home/atcsol/git/JOSE_PHOTOSAT/uah_photsat_freertos/service_libraries/attitude_pid_ctrl/src/attitude_pid_ctrl.c
FN:15,limit_torque
FNDA:1200,limit_torque
FN:26,attitude_pid_ctrl
FNDA:600,attitude_pid_ctrl
DA:15,1200
DA:17,1200
DA:18,1200
DA:19,16
DA:20,1184
DA:21,16
DA:23,1200
DA:26,600
DA:37,600
DA:38,600
DA:43,600
DA:44,600
DA:45,600
DA:46,600
DA:48,600
DA:49,600
DA:51,600
DA:52,600
DA:55,600
DA:56,600
DA:58,600
DA:59,600
DA:61,600
DA:62,600
DA:65,1200
DA:66,600
DA:69,600
DA:70,600
DA:73,600
DA:74,600
DA:76,600
DA:77,600
DA:79,600
DA:80,600
DA:83,600
DA:87,600
DA:88,600
DA:90,600
end_of_record
TN:
SF:/home/atcsol/git/JOSE_PHOTOSAT/uah_photsat_freertos/service_libraries/crc/src/crc.c
FN:29,cal_crc_16
FNDA:20,cal_crc_16
DA:29,20
DA:31,20
DA:33,372
DA:35,352
DA:37,3168
DA:39,2816
DA:40,1478
DA:42,1338
DA:47,20
end_of_record
TN:
SF:/home/atcsol/git/JOSE_PHOTOSAT/uah_photsat_freertos/service_libraries/edroomsl/edroombp/src/freertossapi/edroombp.cpp
FN:35,_ZN11lista_tareaC2Ev
FNDA:1,_ZN11lista_tareaC2Ev
FN:37,_ZN11lista_tarea3addEP19tskTaskControlBlockP7Pr_Task
FNDA:10,_ZN11lista_tarea3addEP19tskTaskControlBlockP7Pr_Task
FN:48,_ZN11lista_tarea6removeEP19tskTaskControlBlock
FNDA:0,_ZN11lista_tarea6removeEP19tskTaskControlBlock
FN:73,_ZN11lista_tarea4findEP19tskTaskControlBlock
FNDA:731,_ZN11lista_tarea4findEP19tskTaskControlBlock
FN:100,_ZN9Pr_KernelC2Ev
FNDA:1,_ZN9Pr_KernelC2Ev
FN:105,_ZN9Pr_Kernel5StartEv
FNDA:1,_ZN9Pr_Kernel5StartEv
FN:112,_ZN9Pr_Kernel5PanicEPKc
FNDA:0,_ZN9Pr_Kernel5PanicEPKc
FN:126,_ZN7Pr_TaskC2EPFvvEPKc15TEDROOMPriorityj
FNDA:0,_ZN7Pr_TaskC2EPFvvEPKc15TEDROOMPriorityj
FN:154,_ZN7Pr_TaskC2EPFvvE15TEDROOMPriorityj
FNDA:10,_ZN7Pr_TaskC2EPFvvE15TEDROOMPriorityj
FN:182,_ZN7Pr_Task11SetPriorityE15TEDROOMPriority
FNDA:0,_ZN7Pr_Task11SetPriorityE15TEDROOMPriority
FN:193,_ZN7Pr_Task13SetMaxPrioTmpE15TEDROOMPriority
FNDA:723,_ZN7Pr_Task13SetMaxPrioTmpE15TEDROOMPriority
FN:206,_ZN7Pr_Task13SetMaxPrioMsgE15TEDROOMPriority
FNDA:0,_ZN7Pr_Task13SetMaxPrioMsgE15TEDROOMPriority
FN:219,_ZN7Pr_Task14RestorePrioMsgEv
FNDA:720,_ZN7Pr_Task14RestorePrioMsgEv
FN:228,_ZN7Pr_Task11GetTaskPrioEv
FNDA:0,_ZN7Pr_Task11GetTaskPrioEv
FN:233,_ZN7Pr_Task14ChangePriorityE15TEDROOMPriority
FNDA:1443,_ZN7Pr_Task14ChangePriorityE15TEDROOMPriority
FN:249,_ZN7Pr_TimeC2Ev
FNDA:2883,_ZN7Pr_TimeC2Ev
FN:255,_ZN7Pr_TimeC2ERKS_
FNDA:2198,_ZN7Pr_TimeC2ERKS_
FN:261,_ZN7Pr_TimeC2Ejj
FNDA:725,_ZN7Pr_TimeC2Ejj
FN:267,_ZN7Pr_TimeC2E8timespec
FNDA:0,_ZN7Pr_TimeC2E8timespec
FN:281,_ZN7Pr_Time7GetTimeEv
FNDA:3980,_ZN7Pr_Time7GetTimeEv
FN:291,_ZN7Pr_Time8GetTicksEv
FNDA:743,_ZN7Pr_Time8GetTicksEv
FN:302,_ZN7Pr_Time8FineTimeEv
FNDA:600,_ZN7Pr_Time8FineTimeEv
FN:313,_ZN7Pr_TimepLERKS_
FNDA:723,_ZN7Pr_TimepLERKS_
FN:319,_ZN7Pr_TimemIERKS_
FNDA:1323,_ZN7Pr_TimemIERKS_
FN:345,_ZN7Pr_TimeaSERKS_
FNDA:3023,_ZN7Pr_TimeaSERKS_
FN:352,_ZN7Pr_TimeeqERKS_
FNDA:0,_ZN7Pr_TimeeqERKS_
FN:357,_ZN7Pr_TimeneERKS_
FNDA:0,_ZN7Pr_TimeneERKS_
FN:362,_ZN7Pr_TimegtERKS_
FNDA:723,_ZN7Pr_TimegtERKS_
FN:367,_ZN7Pr_TimeltERKS_
FNDA:0,_ZN7Pr_TimeltERKS_
FN:372,_ZN7Pr_TimegeERKS_
FNDA:0,_ZN7Pr_TimegeERKS_
FN:377,_ZN7Pr_TimeleERKS_
FNDA:0,_ZN7Pr_TimeleERKS_
FN:384,_ZNK7Pr_Time5TicksEv
FNDA:0,_ZNK7Pr_Time5TicksEv
FN:390,_Z10Pr_DelayInRK7Pr_Time
FNDA:20,_Z10Pr_DelayInRK7Pr_Time
FN:396,_Z10Pr_DelayAtRK7Pr_Time
FNDA:0,_Z10Pr_DelayAtRK7Pr_Time
FN:420,_ZN12Pr_SemaphoreC2Ej
FNDA:57,_ZN12Pr_SemaphoreC2Ej
FN:431,_ZN15Pr_SemaphoreBinC2EPKcj
FNDA:0,_ZN15Pr_SemaphoreBinC2EPKcj
FN:443,_ZN15Pr_SemaphoreBinC2Ej
FNDA:42,_ZN15Pr_SemaphoreBinC2Ej
FN:455,_ZN15Pr_SemaphoreBin6SignalEv
FNDA:2926,_ZN15Pr_SemaphoreBin6SignalEv
FN:463,_ZN15Pr_SemaphoreBin4WaitEv
FNDA:2929,_ZN15Pr_SemaphoreBin4WaitEv
FN:472,_ZN15Pr_SemaphoreBin8WaitCondEv
FNDA:729,_ZN15Pr_SemaphoreBin8WaitCondEv
FN:481,_ZN15Pr_SemaphoreBin9WaitTimedERK7Pr_Time
FNDA:723,_ZN15Pr_SemaphoreBin9WaitTimedERK7Pr_Time
FN:498,_ZN15Pr_SemaphoreRecC2EPKc
FNDA:0,_ZN15Pr_SemaphoreRecC2EPKc
FN:508,_ZN15Pr_SemaphoreRecC2Ev
FNDA:15,_ZN15Pr_SemaphoreRecC2Ev
FN:521,_ZN15Pr_SemaphoreRecC2EPKcj
FNDA:0,_ZN15Pr_SemaphoreRecC2EPKcj
FN:537,_ZN15Pr_SemaphoreRecC2Ei
FNDA:0,_ZN15Pr_SemaphoreRecC2Ei
FN:554,_ZN15Pr_SemaphoreRec6UnLockEv
FNDA:7739,_ZN15Pr_SemaphoreRec6UnLockEv
FN:562,_ZN15Pr_SemaphoreRec4LockEv
FNDA:7739,_ZN15Pr_SemaphoreRec4LockEv
FN:576,_Z7Pr_SendR7Pr_TaskPv
FNDA:731,_Z7Pr_SendR7Pr_TaskPv
FN:583,_Z10Pr_ReceivePvj
FNDA:731,_Z10Pr_ReceivePvj
FN:607,_ZN13Pr_IRQManager7MaskIRQEj
FNDA:1,_ZN13Pr_IRQManager7MaskIRQEj
FN:611,_ZN13Pr_IRQManager10DisableIRQEj
FNDA:0,_ZN13Pr_IRQManager10DisableIRQEj
FN:616,_ZN13Pr_IRQManager9UnMaskIRQEj
FNDA:1,_ZN13Pr_IRQManager9UnMaskIRQEj
FN:620,_ZN13Pr_IRQManager9EnableIRQEj
FNDA:9,_ZN13Pr_IRQManager9EnableIRQEj
FN:625,_ZN13Pr_IRQManager14DisableAllIRQsEv
FNDA:0,_ZN13Pr_IRQManager14DisableAllIRQsEv
FN:630,_ZN13Pr_IRQManager19ApplyCurrentIRQMaskEv
FNDA:0,_ZN13Pr_IRQManager19ApplyCurrentIRQMaskEv
FN:635,_ZN13Pr_IRQManager17InstallIRQHandlerEPFvvEhh
FNDA:1,_ZN13Pr_IRQManager17InstallIRQHandlerEPFvvEhh
FN:642,_ZN13Pr_IRQManager19DeinstallIRQHandlerEhh
FNDA:0,_ZN13Pr_IRQManager19DeinstallIRQHandlerEhh
FN:663,_ZN11Pr_IRQEventC2Eh
FNDA:1,_ZN11Pr_IRQEventC2Eh
FN:670,_ZN11Pr_IRQEvent6SignalEv
FNDA:0,_ZN11Pr_IRQEvent6SignalEv
FN:683,_ZN11Pr_IRQEvent14SignalFromTaskEv
FNDA:9,_ZN11Pr_IRQEvent14SignalFromTaskEv
FN:688,_ZN11Pr_IRQEvent4WaitEv
FNDA:10,_ZN11Pr_IRQEvent4WaitEv
FN:693,_ZN11Pr_IRQEvent9WaitTimedER7Pr_Time
FNDA:0,_ZN11Pr_IRQEvent9WaitTimedER7Pr_Time
FN:700,_ZN11Pr_IRQEvent8WaitCondEv
FNDA:0,_ZN11Pr_IRQEvent8WaitCondEv
DA:35,1
DA:37,10
DA:40,10
DA:41,10
DA:42,10
DA:43,10
DA:44,10
DA:45,10
DA:48,0
DA:50,0
DA:51,0
DA:53,0
DA:55,0
DA:57,0
DA:58,0
DA:60,0
DA:61,0
DA:62,0
DA:66,0
DA:67,0
DA:70,0
DA:73,731
DA:76,731
DA:78,2167
DA:80,2167
DA:82,731
DA:86,1436
DA:89,0
DA:100,1
DA:103,1
DA:105,1
DA:108,1
DA:110,0
DA:112,0
DA:114,0
DA:116,0
DA:126,0
DA:129,0
DA:130,0
DA:131,0
DA:132,0
DA:134,0
DA:135,0
DA:137,0
DA:138,0
DA:139,0
DA:141,0
DA:142,0
DA:143,0
DA:146,0
DA:150,0
DA:152,0
DA:154,10
DA:156,10
DA:157,10
DA:158,10
DA:159,10
DA:163,10
DA:165,10
DA:166,10
DA:167,10
DA:169,10
DA:170,10
DA:171,10
DA:174,10
DA:178,0
DA:180,10
DA:182,0
DA:184,0
DA:186,0
DA:188,0
DA:189,0
DA:191,0
DA:193,723
DA:199,723
DA:201,723
DA:202,723
DA:204,723
DA:206,0
DA:208,0
DA:210,0
DA:211,0
DA:213,0
DA:214,0
DA:217,0
DA:219,720
DA:221,720
DA:223,720
DA:224,720
DA:226,720
DA:228,0
DA:230,0
DA:233,1443
DA:236,1443
DA:237,1443
DA:239,1443
DA:240,1443
DA:249,2883
DA:251,2883
DA:252,2883
DA:253,2883
DA:255,2198
DA:257,2198
DA:258,2198
DA:259,2198
DA:261,725
DA:263,725
DA:264,725
DA:265,725
DA:267,0
DA:272,0
DA:273,0
DA:274,0
DA:275,0
DA:276,0
DA:281,3980
DA:283,3980
DA:284,3980
DA:286,3980
DA:288,3980
DA:289,3980
DA:291,743
DA:293,743
DA:294,743
DA:296,743
DA:297,743
DA:298,743
DA:299,743
DA:302,600
DA:304,600
DA:306,600
DA:313,723
DA:315,723
DA:316,723
DA:319,1323
DA:321,1323
DA:323,1323
DA:324,1323
DA:326,120
DA:328,120
DA:329,120
DA:332,0
DA:335,1203
DA:338,0
DA:340,1323
DA:345,3023
DA:347,3023
DA:348,3023
DA:349,3023
DA:352,0
DA:354,0
DA:357,0
DA:359,0
DA:362,723
DA:364,723
DA:367,0
DA:369,0
DA:372,0
DA:374,0
DA:377,0
DA:379,0
DA:384,0
DA:387,0
DA:390,20
DA:392,20
DA:393,20
DA:394,19
DA:396,0
DA:398,0
DA:399,0
DA:401,0
DA:402,0
DA:403,0
DA:404,0
DA:406,0
DA:410,0
DA:414,0
DA:420,57
DA:422,57
DA:423,57
DA:431,0
DA:432,0
DA:434,0
DA:435,0
DA:437,0
DA:439,0
DA:443,42
DA:445,42
DA:446,42
DA:447,42
DA:449,0
DA:451,42
DA:455,2926
DA:457,2926
DA:459,0
DA:461,2926
DA:463,2929
DA:465,2929
DA:467,0
DA:470,2926
DA:472,729
DA:476,729
DA:478,729
DA:481,723
DA:484,723
DA:486,723
DA:488,720
DA:498,0
DA:500,0
DA:501,0
DA:503,0
DA:505,0
DA:508,15
DA:511,15
DA:512,15
DA:513,15
DA:515,0
DA:517,15
DA:521,0
DA:529,0
DA:530,0
DA:532,0
DA:534,0
DA:537,0
DA:541,0
DA:547,0
DA:548,0
DA:550,0
DA:552,0
DA:554,7739
DA:556,7739
DA:558,0
DA:560,7739
DA:562,7739
DA:564,7739
DA:566,0
DA:569,0
DA:570,0
DA:572,7739
DA:576,731
DA:578,731
DA:579,731
DA:580,731
DA:581,731
DA:583,731
DA:585,731
DA:587,731
DA:591,731
DA:592,731
DA:594,18147
DA:596,17416
DA:599,731
DA:600,731
DA:607,1
DA:609,1
DA:611,0
DA:614,0
DA:616,1
DA:619,1
DA:620,9
DA:623,9
DA:625,0
DA:628,0
DA:630,0
DA:633,0
DA:635,1
DA:640,1
DA:642,0
DA:647,0
DA:663,1
DA:665,1
DA:666,1
DA:670,0
DA:681,0
DA:683,9
DA:685,9
DA:687,8
DA:688,10
DA:690,10
DA:691,9
DA:693,0
DA:696,0
DA:700,0
DA:702,0
end_of_record
SF:/home/atcsol/git/JOSE_PHOTOSAT/uah_photsat_freertos/service_libraries/edroomsl/edroombp/include/public/edroombp.h
FN:192,_ZN12Pr_SemaphoreD2Ev
FNDA:0,_ZN12Pr_SemaphoreD2Ev
FN:261,_ZN15Pr_SemaphoreBinD2Ev
FNDA:0,_ZN15Pr_SemaphoreBinD2Ev
DA:192,0
DA:194,0
DA:195,0
DA:261,0
DA:264,0
end_of_record
TN:
SF:/home/atcsol/git/JOSE_PHOTOSAT/uah_photsat_freertos/service_libraries/edroomsl/edroombp/src/freertossapi/timespec.c
FN:22,timespec_normalize
FNDA:723,timespec_normalize
FN:43,timespec_add
FNDA:723,timespec_add
FN:49,timespec_sub
FNDA:0,timespec_sub
FN:55,timespec_nz
FNDA:0,timespec_nz
FN:59,timespec_lt
FNDA:723,timespec_lt
FN:64,timespec_gt
FNDA:723,timespec_gt
FN:68,timespec_le
FNDA:0,timespec_le
FN:72,timespec_ge
FNDA:0,timespec_ge
FN:76,timespec_eq
FNDA:0,timespec_eq
FN:80,timespec_from_us
FNDA:0,timespec_from_us
FN:86,timespec_to_us
FNDA:0,timespec_to_us
DA:22,723
DA:25,723
DA:26,60
DA:27,60
DA:30,663
DA:31,0
DA:32,0
DA:36,723
DA:39,0
DA:40,0
DA:43,723
DA:44,723
DA:45,723
DA:46,723
DA:47,723
DA:49,0
DA:50,0
DA:51,0
DA:52,0
DA:53,0
DA:55,0
DA:56,0
DA:59,723
DA:60,723
DA:61,541
DA:64,723
DA:65,723
DA:68,0
DA:69,0
DA:72,0
DA:73,0
DA:76,0
DA:77,0
DA:80,0
DA:81,0
DA:82,0
DA:83,0
DA:84,0
DA:86,0
DA:87,0
end_of_record
TN:
SF:/home/atcsol/git/JOSE_PHOTOSAT/uah_photsat_freertos/service_libraries/edroomsl/edroomsl/src/edroomsl.cpp
FN:102,_ZN17CEDROOMMemoryPool9SetMemoryEjPvPbj
FNDA:19,_ZN17CEDROOMMemoryPool9SetMemoryEjPvPbj
FN:127,_ZN17CEDROOMMemoryPool14GetElementSizeEv
FNDA:0,_ZN17CEDROOMMemoryPool14GetElementSizeEv
FN:135,_ZN17CEDROOMMemoryPool9AllocDataEv
FNDA:1485,_ZN17CEDROOMMemoryPool9AllocDataEv
FN:147,_ZN17CEDROOMMemoryPool9AllocDataERj
FNDA:2229,_ZN17CEDROOMMemoryPool9AllocDataERj
FN:191,_ZN17CEDROOMMemoryPool8FreeDataEPv
FNDA:2220,_ZN17CEDROOMMemoryPool8FreeDataEPv
FN:244,_ZN26CEDROOMProtectedMemoryPoolC2EjPvPbj
FNDA:3,_ZN26CEDROOMProtectedMemoryPoolC2EjPvPbj
FN:256,_ZN26CEDROOMProtectedMemoryPool9AllocDataEv
FNDA:21,_ZN26CEDROOMProtectedMemoryPool9AllocDataEv
FN:268,_ZN26CEDROOMProtectedMemoryPool9AllocDataERj
FNDA:21,_ZN26CEDROOMProtectedMemoryPool9AllocDataERj
FN:285,_ZN26CEDROOMProtectedMemoryPool8FreeDataEPv
FNDA:20,_ZN26CEDROOMProtectedMemoryPool8FreeDataEPv
FN:330,_ZN14CEDROOMMessageC2Ev
FNDA:71,_ZN14CEDROOMMessageC2Ev
FN:345,_ZN14CEDROOMMessage16FreeDeliveryInfoEv
FNDA:21,_ZN14CEDROOMMessage16FreeDeliveryInfoEv
FN:352,_ZN14CEDROOMMessage13GetPInterfaceEv
FNDA:741,_ZN14CEDROOMMessage13GetPInterfaceEv
FN:357,_ZN14CEDROOMMessage14GetMsgDataSizeEv
FNDA:0,_ZN14CEDROOMMessage14GetMsgDataSizeEv
FN:368,_ZN14CEDROOMMessage5replyEi
FNDA:0,_ZN14CEDROOMMessage5replyEi
FN:376,_ZN14CEDROOMMessage5replyEiPvP17CEDROOMMemoryPool
FNDA:0,_ZN14CEDROOMMessage5replyEiPvP17CEDROOMMemoryPool
FN:390,_ZN20CEDROOMSynchrMessageC2Ev
FNDA:5,_ZN20CEDROOMSynchrMessageC2Ev
FN:399,_ZN20CEDROOMSynchrMessage5replyEi
FNDA:0,_ZN20CEDROOMSynchrMessage5replyEi
FN:407,_ZN20CEDROOMSynchrMessage5replyEiPvP17CEDROOMMemoryPool
FNDA:0,_ZN20CEDROOMSynchrMessage5replyEiPvP17CEDROOMMemoryPool
FN:432,_ZN21CEDROOMTimeOutMessage16FreeDeliveryInfoEv
FNDA:720,_ZN21CEDROOMTimeOutMessage16FreeDeliveryInfoEv
FN:457,_ZN25CEDROOMSynchrMessagesPoolC2EP20CEDROOMSynchrMessage
FNDA:5,_ZN25CEDROOMSynchrMessagesPoolC2EP20CEDROOMSynchrMessage
FN:465,_ZN25CEDROOMSynchrMessagesPool14GetElementSizeEv
FNDA:0,_ZN25CEDROOMSynchrMessagesPool14GetElementSizeEv
FN:471,_ZN25CEDROOMSynchrMessagesPool9AllocDataEv
FNDA:0,_ZN25CEDROOMSynchrMessagesPool9AllocDataEv
FN:478,_ZN25CEDROOMSynchrMessagesPool8FreeDataEPv
FNDA:0,_ZN25CEDROOMSynchrMessagesPool8FreeDataEPv
FN:484,_ZN19CEDROOMMessagesPool9SetMemoryEjP14CEDROOMMessagePb
FNDA:5,_ZN19CEDROOMMessagesPool9SetMemoryEjP14CEDROOMMessagePb
FN:492,_ZN19CEDROOMMessagesPool9AllocDataEv
FNDA:21,_ZN19CEDROOMMessagesPool9AllocDataEv
FN:498,_ZN26CEDROOMTimeOutMessagesPool9SetMemoryEjP21CEDROOMTimeOutMessagePb
FNDA:3,_ZN26CEDROOMTimeOutMessagesPool9SetMemoryEjP21CEDROOMTimeOutMessagePb
FN:506,_ZN26CEDROOMTimeOutMessagesPool9AllocDataEv
FNDA:723,_ZN26CEDROOMTimeOutMessagesPool9AllocDataEv
FN:543,_ZN16CEDROOMInterface4sendEi
FNDA:0,_ZN16CEDROOMInterface4sendEi
FN:550,_ZN16CEDROOMInterface4sendEiPvP17CEDROOMMemoryPool
FNDA:12,_ZN16CEDROOMInterface4sendEiPvP17CEDROOMMemoryPool
FN:562,_ZN16CEDROOMInterface6invokeEi
FNDA:0,_ZN16CEDROOMInterface6invokeEi
FN:570,_ZN16CEDROOMInterface6invokeEiPvP17CEDROOMMemoryPool
FNDA:0,_ZN16CEDROOMInterface6invokeEiPvP17CEDROOMMemoryPool
FN:580,_ZN16CEDROOMInterface16applyConverFunctEi
FNDA:0,_ZN16CEDROOMInterface16applyConverFunctEi
FN:588,_ZN16CEDROOMInterfaceeqERS_
FNDA:741,_ZN16CEDROOMInterfaceeqERS_
FN:592,_ZN16CEDROOMInterfaceneERS_
FNDA:0,_ZN16CEDROOMInterfaceneERS_
FN:601,_ZN19CEDROOMIRQInterface14InstallHandlerEv
FNDA:1,_ZN19CEDROOMIRQInterface14InstallHandlerEv
FN:610,_ZN19CEDROOMIRQInterface16DeInstallHandlerEv
FNDA:0,_ZN19CEDROOMIRQInterface16DeInstallHandlerEv
FN:620,_ZN19CEDROOMIRQInterface17EndIRQHandlerTaskEv
FNDA:0,_ZN19CEDROOMIRQInterface17EndIRQHandlerTaskEv
FN:630,_ZN19CEDROOMIRQInterface7MaskIRQEv
FNDA:1,_ZN19CEDROOMIRQInterface7MaskIRQEv
FN:635,_ZN19CEDROOMIRQInterface9UnMaskIRQEv
FNDA:1,_ZN19CEDROOMIRQInterface9UnMaskIRQEv
FN:640,_ZN19CEDROOMIRQInterfaceC2EPFvvES1_R11Pr_IRQEventR15Pr_SemaphoreBina
FNDA:1,_ZN19CEDROOMIRQInterfaceC2EPFvvES1_R11Pr_IRQEventR15Pr_SemaphoreBina
FN:653,_ZN19CEDROOMIRQInterface9NewIRQMsgEiPvP17CEDROOMMemoryPool
FNDA:9,_ZN19CEDROOMIRQInterface9NewIRQMsgEiPvP17CEDROOMMemoryPool
FN:716,_ZN26CEDROOMNonMaskIRQInterfaceC2EPFvvES1_R11Pr_IRQEventR15Pr_SemaphoreBinhPh
FNDA:0,_ZN26CEDROOMNonMaskIRQInterfaceC2EPFvvES1_R11Pr_IRQEventR15Pr_SemaphoreBinhPh
FN:728,_ZN26CEDROOMNonMaskIRQInterface14InstallHandlerEv
FNDA:0,_ZN26CEDROOMNonMaskIRQInterface14InstallHandlerEv
FN:739,_ZN26CEDROOMNonMaskIRQInterface16DeInstallHandlerEv
FNDA:0,_ZN26CEDROOMNonMaskIRQInterface16DeInstallHandlerEv
FN:748,_ZN26CEDROOMNonMaskIRQInterface17EndIRQHandlerTaskEv
FNDA:0,_ZN26CEDROOMNonMaskIRQInterface17EndIRQHandlerTaskEv
FN:790,_ZN12CEDROOMTimerC2Ev
FNDA:723,_ZN12CEDROOMTimerC2Ev
FN:795,_ZN12CEDROOMTimer7IsValidEv
FNDA:0,_ZN12CEDROOMTimer7IsValidEv
FN:807,_ZN22CEDROOMTimingInterfaceC2EP16CEDROOMTimingSAPj
FNDA:4,_ZN22CEDROOMTimingInterfaceC2EP16CEDROOMTimingSAPj
FN:820,_ZN22CEDROOMTimingInterface8InformAtE7Pr_Time
FNDA:723,_ZN22CEDROOMTimingInterface8InformAtE7Pr_Time
FN:833,_ZN22CEDROOMTimingInterface8InformInE7Pr_Time
FNDA:0,_ZN22CEDROOMTimingInterface8InformInE7Pr_Time
FN:849,_ZN22CEDROOMTimingInterface11currentTimeER7Pr_Time
FNDA:0,_ZN22CEDROOMTimingInterface11currentTimeER7Pr_Time
FN:856,_ZN22CEDROOMTimingInterface11currentTimeEv
FNDA:0,_ZN22CEDROOMTimingInterface11currentTimeEv
FN:870,_ZN16CEDROOMTimingSAPC2EP16CEDROOMComponentjP19CEDROOMTimingMemory
FNDA:3,_ZN16CEDROOMTimingSAPC2EP16CEDROOMComponentjP19CEDROOMTimingMemory
FN:895,_ZN16CEDROOMTimingSAP14EDROOMfunTimerEv
FNDA:3,_ZN16CEDROOMTimingSAP14EDROOMfunTimerEv
FN:1056,_ZN16CEDROOMTimingSAP8InformAtEP22CEDROOMTimingInterface7Pr_Time
FNDA:723,_ZN16CEDROOMTimingSAP8InformAtEP22CEDROOMTimingInterface7Pr_Time
FN:1236,_ZN16CEDROOMTimingSAP5StartEv
FNDA:3,_ZN16CEDROOMTimingSAP5StartEv
FN:1248,_ZN19CEDROOMTimingMemory9SetMemoryEjP16CEDROOMTimerInfoPbP21CEDROOMTimeOutMessageS2_
FNDA:3,_ZN19CEDROOMTimingMemory9SetMemoryEjP16CEDROOMTimerInfoPbP21CEDROOMTimeOutMessageS2_
FN:1265,_ZN20CEDROOMTimerInfoPool9SetMemoryEjP16CEDROOMTimerInfoPb
FNDA:3,_ZN20CEDROOMTimerInfoPool9SetMemoryEjP16CEDROOMTimerInfoPb
FN:1276,_ZN20CEDROOMTimerInfoPool9AllocDataERj
FNDA:723,_ZN20CEDROOMTimerInfoPool9AllocDataERj
FN:1310,_ZN12CEDROOMQueue10CQueueNodeC2Ev
FNDA:61,_ZN12CEDROOMQueue10CQueueNodeC2Ev
FN:1318,_ZN12CEDROOMQueue10CQueueHeadC2Ev
FNDA:40,_ZN12CEDROOMQueue10CQueueHeadC2Ev
FN:1328,_ZN12CEDROOMQueueC2EjP7Pr_TaskP15Pr_SemaphoreRectPNS_21CEDROOMQueueNodesPoolEPNS_10CQueueHeadE
FNDA:5,_ZN12CEDROOMQueueC2EjP7Pr_TaskP15Pr_SemaphoreRectPNS_21CEDROOMQueueNodesPoolEPNS_10CQueueHeadE
FN:1361,_ZN12CEDROOMQueue6IsFullEv
FNDA:741,_ZN12CEDROOMQueue6IsFullEv
FN:1369,_ZN12CEDROOMQueue2InEP14CEDROOMMessage
FNDA:741,_ZN12CEDROOMQueue2InEP14CEDROOMMessage
FN:1401,_ZN12CEDROOMQueue3OutERP14CEDROOMMessage
FNDA:744,_ZN12CEDROOMQueue3OutERP14CEDROOMMessage
FN:1456,_ZN12CEDROOMQueue26UpDateSortedQueueHeadsListE15TEDROOMPriority
FNDA:741,_ZN12CEDROOMQueue26UpDateSortedQueueHeadsListE15TEDROOMPriority
FN:1511,_ZN12CEDROOMQueue9PutInNodeEPNS_10CQueueHeadEPNS_10CQueueNodeE
FNDA:741,_ZN12CEDROOMQueue9PutInNodeEPNS_10CQueueHeadEPNS_10CQueueNodeE
FN:1535,_ZN12CEDROOMQueue11TakeOutNodeERPNS_10CQueueNodeER15TEDROOMPriority
FNDA:741,_ZN12CEDROOMQueue11TakeOutNodeERPNS_10CQueueNodeER15TEDROOMPriority
FN:1558,_ZN12CEDROOMQueue21CEDROOMQueueNodesPool9SetMemoryEjPNS_10CQueueNodeEPb
FNDA:5,_ZN12CEDROOMQueue21CEDROOMQueueNodesPool9SetMemoryEjPNS_10CQueueNodeEPb
FN:1569,_ZN12CEDROOMQueue21CEDROOMQueueNodesPool9AllocDataEv
FNDA:741,_ZN12CEDROOMQueue21CEDROOMQueueNodesPool9AllocDataEv
FN:1606,_ZN21CEDROOMLocalTXChannelC2Ev
FNDA:6,_ZN21CEDROOMLocalTXChannelC2Ev
FN:1621,_ZN21CEDROOMLocalTXChannel4sendEiPvP17CEDROOMMemoryPool
FNDA:12,_ZN21CEDROOMLocalTXChannel4sendEiPvP17CEDROOMMemoryPool
FN:1693,_ZN21CEDROOMLocalTXChannel6invokeEiPvP17CEDROOMMemoryPool
FNDA:0,_ZN21CEDROOMLocalTXChannel6invokeEiPvP17CEDROOMMemoryPool
FN:1782,_ZN19CEDROOMLocalCommSAP17RegisterInterfaceEjR16CEDROOMInterfaceP16CEDROOMComponent
FNDA:11,_ZN19CEDROOMLocalCommSAP17RegisterInterfaceEjR16CEDROOMInterfaceP16CEDROOMComponent
FN:1795,_ZN19CEDROOMLocalCommSAP7ConnectER16CEDROOMInterfaceS1_R22CEDROOMLocalConnectionPFiiES5_
FNDA:3,_ZN19CEDROOMLocalCommSAP7ConnectER16CEDROOMInterfaceS1_R22CEDROOMLocalConnectionPFiiES5_
FN:1860,_ZN16CEDROOMComponentC2Ejtj15TEDROOMPriorityjP22CEDROOMComponentMemory
FNDA:5,_ZN16CEDROOMComponentC2Ejtj15TEDROOMPriorityjP22CEDROOMComponentMemory
FN:1891,_ZN16CEDROOMComponentC2EPKcjtj15TEDROOMPriorityjP22CEDROOMComponentMemory
FNDA:0,_ZN16CEDROOMComponentC2EPKcjtj15TEDROOMPriorityjP22CEDROOMComponentMemory
FN:1923,_ZN16CEDROOMComponentD2Ev
FNDA:0,_ZN16CEDROOMComponentD2Ev
FN:1923,_ZN16CEDROOMComponentD0Ev
FNDA:0,_ZN16CEDROOMComponentD0Ev
FN:1930,_ZN16CEDROOMComponent13EDROOMDestroyEv
FNDA:0,_ZN16CEDROOMComponent13EDROOMDestroyEv
FN:1969,_ZN16CEDROOMComponent11EDROOMStartEv
FNDA:5,_ZN16CEDROOMComponent11EDROOMStartEv
FN:1984,_ZN16CEDROOMComponent12EDROOMNewMsgEv
FNDA:744,_ZN16CEDROOMComponent12EDROOMNewMsgEv
FN:2009,_ZN16CEDROOMComponent17EDROOMFreeMessageERP14CEDROOMMessage
FNDA:744,_ZN16CEDROOMComponent17EDROOMFreeMessageERP14CEDROOMMessage
FN:2037,_ZN16CEDROOMComponent21EDROOMFreeMsgBackDataEv
FNDA:744,_ZN16CEDROOMComponent21EDROOMFreeMsgBackDataEv
FN:2055,_ZN16CEDROOMComponent19EDROOMComponentTaskEv
FNDA:5,_ZN16CEDROOMComponent19EDROOMComponentTaskEv
FN:2071,_ZN22CEDROOMComponentMemory9SetMemoryEjP14CEDROOMMessagePbjPN12CEDROOMQueue10CQueueNodeES2_PNS3_10CQueueHeadE
FNDA:5,_ZN22CEDROOMComponentMemory9SetMemoryEjP14CEDROOMMessagePbjPN12CEDROOMQueue10CQueueNodeES2_PNS3_10CQueueHeadE
DA:102,19
DA:108,19
DA:111,19
DA:113,176
DA:114,157
DA:117,19
DA:120,19
DA:123,19
DA:125,19
DA:127,0
DA:128,0
DA:135,1485
DA:139,1485
DA:147,2229
DA:149,2229
DA:153,2229
DA:156,2229
DA:159,2229
DA:160,2229
DA:163,2229
DA:164,2229
DA:165,2229
DA:169,2229
DA:171,2229
DA:174,2229
DA:176,2229
DA:178,2229
DA:181,0
DA:184,2229
DA:191,2220
DA:199,2220
DA:202,2220
DA:204,2220
DA:206,2220
DA:210,0
DA:215,2220
DA:218,2220
DA:221,2220
DA:222,0
DA:224,2220
DA:226,2220
DA:229,2220
DA:244,3
DA:245,3
DA:248,3
DA:250,3
DA:256,21
DA:260,42
DA:268,21
DA:272,21
DA:274,21
DA:276,21
DA:278,21
DA:285,20
DA:289,20
DA:291,20
DA:293,20
DA:295,20
DA:330,71
DA:332,71
DA:333,71
DA:334,71
DA:335,71
DA:336,71
DA:337,71
DA:338,71
DA:340,71
DA:345,21
DA:347,21
DA:352,741
DA:353,741
DA:357,0
DA:358,0
DA:359,0
DA:360,0
DA:362,0
DA:368,0
DA:372,0
DA:373,0
DA:376,0
DA:381,0
DA:382,0
DA:390,5
DA:391,5
DA:392,5
DA:393,5
DA:394,5
DA:399,0
DA:401,0
DA:403,0
DA:407,0
DA:410,0
DA:412,0
DA:413,0
DA:415,0
DA:416,0
DA:417,0
DA:420,0
DA:422,0
DA:423,0
DA:425,0
DA:432,720
DA:434,720
DA:436,720
DA:438,720
DA:440,720
DA:442,720
DA:446,720
DA:448,720
DA:457,5
DA:458,5
DA:459,5
DA:461,5
DA:463,5
DA:465,0
DA:466,0
DA:471,0
DA:473,0
DA:474,0
DA:478,0
DA:480,0
DA:481,0
DA:484,5
DA:487,5
DA:490,5
DA:492,21
DA:494,21
DA:498,3
DA:501,3
DA:504,3
DA:506,723
DA:508,723
DA:543,0
DA:546,0
DA:548,0
DA:550,12
DA:555,12
DA:557,12
DA:562,0
DA:564,0
DA:570,0
DA:573,0
DA:580,0
DA:582,0
DA:588,741
DA:589,741
DA:592,0
DA:593,0
DA:601,1
DA:602,1
DA:603,1
DA:605,1
DA:608,1
DA:610,0
DA:611,0
DA:612,0
DA:613,0
DA:614,0
DA:615,0
DA:618,0
DA:620,0
DA:622,0
DA:623,0
DA:624,0
DA:625,0
DA:626,0
DA:628,0
DA:630,1
DA:632,1
DA:633,1
DA:635,1
DA:637,1
DA:638,1
DA:640,1
DA:642,1
DA:644,1
DA:645,1
DA:646,1
DA:647,1
DA:648,1
DA:649,1
DA:651,1
DA:653,9
DA:659,9
DA:662,9
DA:665,0
DA:667,9
DA:670,0
DA:675,9
DA:679,9
DA:683,9
DA:686,9
DA:689,9
DA:691,9
DA:692,9
DA:693,0
DA:698,9
DA:701,9
DA:704,9
DA:709,9
DA:711,9
DA:716,0
DA:719,0
DA:721,0
DA:723,0
DA:724,0
DA:726,0
DA:728,0
DA:730,0
DA:731,0
DA:732,0
DA:734,0
DA:737,0
DA:739,0
DA:740,0
DA:741,0
DA:742,0
DA:743,0
DA:746,0
DA:748,0
DA:750,0
DA:751,0
DA:752,0
DA:753,0
DA:755,0
DA:790,723
DA:791,723
DA:792,723
DA:793,723
DA:795,0
DA:796,0
DA:807,4
DA:808,4
DA:810,4
DA:812,4
DA:813,4
DA:815,4
DA:820,723
DA:822,723
DA:833,0
DA:835,0
DA:837,0
DA:839,0
DA:842,0
DA:849,0
DA:850,0
DA:851,0
DA:856,0
DA:857,0
DA:858,0
DA:859,0
DA:870,3
DA:871,3
DA:873,3
DA:876,6
DA:880,3
DA:882,3
DA:884,3
DA:886,3
DA:888,3
DA:890,3
DA:895,3
DA:901,3
DA:903,3
DA:904,3
DA:908,3
DA:911,3
DA:914,3
DA:918,723
DA:921,723
DA:923,723
DA:926,723
DA:929,723
DA:931,723
DA:934,723
DA:937,723
DA:938,723
DA:940,723
DA:942,720
DA:947,720
DA:950,720
DA:954,720
DA:958,720
DA:961,720
DA:965,720
DA:968,720
DA:971,720
DA:973,720
DA:975,0
DA:979,720
DA:984,720
DA:987,720
DA:992,720
DA:994,0
DA:996,0
DA:998,0
DA:1001,0
DA:1004,0
DA:1007,0
DA:1012,0
DA:1015,0
DA:1018,0
DA:1020,0
DA:1022,0
DA:1026,0
DA:1031,0
DA:1034,0
DA:1037,0
DA:1044,720
DA:1056,723
DA:1062,723
DA:1065,723
DA:1067,723
DA:1069,0
DA:1072,0
DA:1079,723
DA:1082,723
DA:1085,723
DA:1088,723
DA:1091,723
DA:1093,723
DA:1095,723
DA:1100,723
DA:1103,723
DA:1107,723
DA:1111,723
DA:1113,723
DA:1115,723
DA:1117,723
DA:1119,723
DA:1121,723
DA:1123,723
DA:1125,723
DA:1127,723
DA:1129,723
DA:1133,723
DA:1137,723
DA:1139,723
DA:1143,0
DA:1144,0
DA:1150,0
DA:1152,0
DA:1153,0
DA:1157,0
DA:1160,0
DA:1166,0
DA:1170,0
DA:1173,0
DA:1177,0
DA:1179,0
DA:1181,0
DA:1184,0
DA:1187,0
DA:1188,0
DA:1192,0
DA:1200,723
DA:1202,723
DA:1203,723
DA:1209,723
DA:1211,723
DA:1215,723
DA:1219,723
DA:1220,723
DA:1225,723
DA:1230,723
DA:1236,3
DA:1240,3
DA:1241,3
DA:1243,3
DA:1248,3
DA:1255,3
DA:1258,3
DA:1260,3
DA:1265,3
DA:1268,3
DA:1271,3
DA:1276,723
DA:1278,723
DA:1310,61
DA:1311,61
DA:1312,61
DA:1313,61
DA:1318,40
DA:1319,40
DA:1320,40
DA:1321,40
DA:1322,40
DA:1323,40
DA:1328,5
DA:1330,5
DA:1331,5
DA:1335,5
DA:1337,5
DA:1338,5
DA:1339,5
DA:1341,5
DA:1342,5
DA:1344,5
DA:1345,5
DA:1347,45
DA:1348,40
DA:1350,5
DA:1352,5
DA:1361,741
DA:1363,741
DA:1369,741
DA:1371,741
DA:1375,741
DA:1376,741
DA:1377,741
DA:1379,741
DA:1383,741
DA:1385,741
DA:1389,741
DA:1391,741
DA:1392,741
DA:1396,741
DA:1401,744
DA:1408,744
DA:1412,744
DA:1414,744
DA:1418,744
DA:1421,744
DA:1427,741
DA:1434,741
DA:1436,741
DA:1438,741
DA:1442,741
DA:1444,741
DA:1446,741
DA:1450,741
DA:1452,741
DA:1456,741
DA:1460,741
DA:1462,741
DA:1464,741
DA:1466,741
DA:1467,741
DA:1469,0
DA:1471,0
DA:1472,0
DA:1473,0
DA:1476,0
DA:1478,0
DA:1480,0
DA:1482,0
DA:1483,0
DA:1484,0
DA:1488,0
DA:1489,0
DA:1491,0
DA:1493,0
DA:1494,0
DA:1495,0
DA:1502,741
DA:1511,741
DA:1512,741
DA:1514,741
DA:1516,0
DA:1517,0
DA:1518,0
DA:1521,741
DA:1523,741
DA:1526,741
DA:1535,741
DA:1540,741
DA:1542,741
DA:1545,741
DA:1549,741
DA:1551,741
DA:1553,741
DA:1558,5
DA:1561,5
DA:1564,5
DA:1569,741
DA:1571,741
DA:1606,6
DA:1608,6
DA:1609,6
DA:1611,6
DA:1612,6
DA:1613,6
DA:1614,6
DA:1616,6
DA:1621,12
DA:1627,12
DA:1628,12
DA:1629,0
DA:1632,0
DA:1634,0
DA:1639,12
DA:1642,12
DA:1645,0
DA:1647,0
DA:1649,12
DA:1652,0
DA:1654,0
DA:1658,12
DA:1659,12
DA:1664,12
DA:1667,12
DA:1670,12
DA:1673,12
DA:1676,12
DA:1679,12
DA:1682,12
DA:1683,12
DA:1684,12
DA:1688,12
DA:1693,0
DA:1697,0
DA:1704,0
DA:1709,0
DA:1712,0
DA:1715,0
DA:1718,0
DA:1721,0
DA:1722,0
DA:1723,0
DA:1726,0
DA:1731,0
DA:1735,0
DA:1738,0
DA:1741,0
DA:1744,0
DA:1747,0
DA:1749,0
DA:1751,0
DA:1753,0
DA:1754,0
DA:1755,0
DA:1756,0
DA:1757,0
DA:1758,0
DA:1761,0
DA:1763,0
DA:1765,0
DA:1767,0
DA:1771,0
DA:1782,11
DA:1785,11
DA:1787,11
DA:1789,11
DA:1795,3
DA:1801,3
DA:1803,3
DA:1805,3
DA:1807,3
DA:1811,3
DA:1812,3
DA:1816,3
DA:1817,3
DA:1818,3
DA:1819,3
DA:1823,3
DA:1824,3
DA:1826,3
DA:1860,5
DA:1862,5
DA:1863,5
DA:1864,5
DA:1867,5
DA:1871,5
DA:1873,5
DA:1875,5
DA:1877,5
DA:1879,5
DA:1880,5
DA:1882,5
DA:1884,5
DA:1886,5
DA:1891,0
DA:1894,0
DA:1895,0
DA:1896,0
DA:1899,0
DA:1903,0
DA:1905,0
DA:1907,0
DA:1909,0
DA:1911,0
DA:1912,0
DA:1914,0
DA:1916,0
DA:1918,0
DA:1923,0
DA:1925,0
DA:1923,0
DA:1925,0
DA:1930,0
DA:1934,0
DA:1936,0
DA:1938,0
DA:1940,0
DA:1943,0
DA:1946,0
DA:1950,0
DA:1952,0
DA:1955,0
DA:1959,0
DA:1962,0
DA:1964,0
DA:1969,5
DA:1972,5
DA:1974,5
DA:1976,5
DA:1984,744
DA:1987,744
DA:1990,744
DA:1993,744
DA:1996,744
DA:1999,744
DA:2002,741
DA:2004,741
DA:2009,744
DA:2012,744
DA:2014,739
DA:2015,20
DA:2016,20
DA:2018,0
DA:2024,739
DA:2026,739
DA:2027,739
DA:2029,739
DA:2032,744
DA:2037,744
DA:2039,744
DA:2040,0
DA:2041,0
DA:2042,0
DA:2044,0
DA:2048,744
DA:2055,5
DA:2058,5
DA:2060,5
DA:2062,0
DA:2071,5
DA:2078,5
DA:2080,5
DA:2083,5
DA:2085,5
end_of_record
SF:/home/atcsol/git/JOSE_PHOTOSAT/uah_photsat_freertos/service_libraries/edroomsl/edroomsl/include/edroomsl/edroomsl.h
FN:115,_ZN11CEDROOMPoolD2Ev
FNDA:17,_ZN11CEDROOMPoolD2Ev
FN:115,_ZN11CEDROOMPoolD0Ev
FNDA:0,_ZN11CEDROOMPoolD0Ev
FN:231,_ZN17CEDROOMMemoryPool7IsEmptyEv
FNDA:1488,_ZN17CEDROOMMemoryPool7IsEmptyEv
FN:236,_ZN17CEDROOMMemoryPoolD2Ev
FNDA:17,_ZN17CEDROOMMemoryPoolD2Ev
FN:236,_ZN17CEDROOMMemoryPoolD0Ev
FNDA:0,_ZN17CEDROOMMemoryPoolD0Ev
FN:314,_ZN26CEDROOMProtectedMemoryPoolD2Ev
FNDA:1,_ZN26CEDROOMProtectedMemoryPoolD2Ev
FN:314,_ZN26CEDROOMProtectedMemoryPoolD0Ev
FNDA:0,_ZN26CEDROOMProtectedMemoryPoolD0Ev
FN:578,_ZN14CEDROOMMessageD2Ev
FNDA:61,_ZN14CEDROOMMessageD2Ev
FN:578,_ZN14CEDROOMMessageD0Ev
FNDA:0,_ZN14CEDROOMMessageD0Ev
FN:643,_ZN20CEDROOMSynchrMessageD0Ev
FNDA:0,_ZN20CEDROOMSynchrMessageD0Ev
FN:643,_ZN20CEDROOMSynchrMessageD2Ev
FNDA:0,_ZN20CEDROOMSynchrMessageD2Ev
FN:688,_ZN21CEDROOMTimeOutMessageD2Ev
FNDA:11,_ZN21CEDROOMTimeOutMessageD2Ev
FN:688,_ZN21CEDROOMTimeOutMessageD0Ev
FNDA:0,_ZN21CEDROOMTimeOutMessageD0Ev
FN:812,_ZN25CEDROOMSynchrMessagesPoolD2Ev
FNDA:0,_ZN25CEDROOMSynchrMessagesPoolD2Ev
FN:812,_ZN25CEDROOMSynchrMessagesPoolD0Ev
FNDA:0,_ZN25CEDROOMSynchrMessagesPoolD0Ev
FN:1808,_ZN16CEDROOMTXChannelC2Ev
FNDA:6,_ZN16CEDROOMTXChannelC2Ev
FN:1812,_ZN16CEDROOMTXChannelD2Ev
FNDA:6,_ZN16CEDROOMTXChannelD2Ev
FN:1812,_ZN16CEDROOMTXChannelD0Ev
FNDA:0,_ZN16CEDROOMTXChannelD0Ev
FN:1883,_ZN21CEDROOMLocalTXChannelD2Ev
FNDA:6,_ZN21CEDROOMLocalTXChannelD2Ev
FN:1883,_ZN21CEDROOMLocalTXChannelD0Ev
FNDA:0,_ZN21CEDROOMLocalTXChannelD0Ev
FN:2224,_ZN16CEDROOMComponent12SetErrorFlagE15TEDROOMCmpError
FNDA:0,_ZN16CEDROOMComponent12SetErrorFlagE15TEDROOMCmpError
FN:2248,_ZN16CEDROOMComponent14GetNomPriorityEv
FNDA:744,_ZN16CEDROOMComponent14GetNomPriorityEv
DA:115,0
DA:115,17
DA:231,1488
DA:236,0
DA:236,17
DA:314,0
DA:314,1
DA:578,0
DA:578,61
DA:643,0
DA:643,0
DA:688,0
DA:688,11
DA:812,0
DA:812,0
DA:1808,6
DA:1812,0
DA:1812,6
DA:1883,0
DA:1883,6
DA:2224,0
DA:2225,0
DA:2248,744
end_of_record
SF:/home/atcsol/git/JOSE_PHOTOSAT/uah_photsat_freertos/service_libraries/edroomsl/edroombp/include/public/edroombp.h
FN:192,_ZN12Pr_SemaphoreD2Ev
FNDA:6,_ZN12Pr_SemaphoreD2Ev
FN:261,_ZN15Pr_SemaphoreBinD2Ev
FNDA:1,_ZN15Pr_SemaphoreBinD2Ev
FN:310,_ZN15Pr_SemaphoreRec4WaitEv
FNDA:7739,_ZN15Pr_SemaphoreRec4WaitEv
FN:319,_ZN15Pr_SemaphoreRec6SignalEv
FNDA:7739,_ZN15Pr_SemaphoreRec6SignalEv
FN:337,_ZN15Pr_SemaphoreRecD2Ev
FNDA:5,_ZN15Pr_SemaphoreRecD2Ev
FN:533,_ZN7Pr_TaskD2Ev
FNDA:0,_ZN7Pr_TaskD2Ev
DA:192,6
DA:194,6
DA:195,6
DA:261,1
DA:264,1
DA:310,7739
DA:319,7739
DA:337,5
DA:533,0
DA:536,0
end_of_record
TN:
SF:/home/atcsol/git/JOSE_PHOTOSAT/uah_photsat_freertos/service_libraries/edroomsl/edroomsl/src/edroomtc.cpp
FN:9,_ZN13CEDROOMstreamC2Ev
FNDA:0,_ZN13CEDROOMstreamC2Ev
FN:21,_ZN13CEDROOMstreamC2EPKc
FNDA:0,_ZN13CEDROOMstreamC2EPKc
FN:26,_ZN13CEDROOMstream4openEPKci
FNDA:0,_ZN13CEDROOMstream4openEPKci
FN:31,_ZN13CEDROOMstream5closeEv
FNDA:0,_ZN13CEDROOMstream5closeEv
FN:36,_ZN13CEDROOMstream6reopenEv
FNDA:0,_ZN13CEDROOMstream6reopenEv
FN:41,_ZN13CEDROOMstream7is_openEv
FNDA:0,_ZN13CEDROOMstream7is_openEv
FN:46,_ZN13CEDROOMstream4goodEv
FNDA:0,_ZN13CEDROOMstream4goodEv
FN:51,_ZN13CEDROOMstreamlsEPKc
FNDA:0,_ZN13CEDROOMstreamlsEPKc
FN:58,_ZN13CEDROOMstreamlsERKi
FNDA:0,_ZN13CEDROOMstreamlsERKi
FN:66,_ZN13CEDROOMstreamlsERKj
FNDA:0,_ZN13CEDROOMstreamlsERKj
FN:74,_ZN13CEDROOMstreamlsERKf
FNDA:0,_ZN13CEDROOMstreamlsERKf
DA:9,0
DA:11,0
DA:14,0
DA:16,0
DA:19,0
DA:21,0
DA:23,0
DA:24,0
DA:26,0
DA:29,0
DA:31,0
DA:34,0
DA:36,0
DA:39,0
DA:41,0
DA:43,0
DA:46,0
DA:48,0
DA:51,0
DA:54,0
DA:55,0
DA:58,0
DA:61,0
DA:63,0
DA:66,0
DA:69,0
DA:71,0
DA:74,0
DA:76,0
end_of_record
TN:
SF:/home/atcsol/git/JOSE_PHOTOSAT/uah_photsat_freertos/service_libraries/edroomsl/edroomsl_types/include/edroomsl_types/edroomsl_types.h
FN:33,_edroom_switch16
FNDA:0,_edroom_switch16
FN:38,_edroom_switch32
FNDA:0,_edroom_switch32
FN:46,_edroom_switch64
FNDA:0,_edroom_switch64
DA:33,0
DA:35,0
DA:38,0
DA:40,0
DA:41,0
DA:42,0
DA:46,0
DA:48,0
DA:49,0
DA:50,0
DA:51,0
DA:52,0
DA:53,0
DA:54,0
end_of_record
SF:/home/atcsol/git/JOSE_PHOTOSAT/uah_photsat_freertos/service_libraries/edroomsl/edroomsl_types/src/edroomsl_types.cpp
FN:4,TEDROOMUInt64_Serialize
FNDA:0,TEDROOMUInt64_Serialize
FN:9,TEDROOMUInt64_Deserialize
FNDA:0,TEDROOMUInt64_Deserialize
FN:14,TEDROOMUInt32_Serialize
FNDA:0,TEDROOMUInt32_Serialize
FN:19,TEDROOMUInt32_Deserialize
FNDA:0,TEDROOMUInt32_Deserialize
FN:24,TEDROOMUInt16_Serialize
FNDA:0,TEDROOMUInt16_Serialize
FN:29,TEDROOMUInt8_Serialize
FNDA:0,TEDROOMUInt8_Serialize
FN:34,TEDROOMUInt8_Deserialize
FNDA:0,TEDROOMUInt8_Deserialize
FN:39,TEDROOMUInt16_Deserialize
FNDA:0,TEDROOMUInt16_Deserialize
DA:4,0
DA:6,0
DA:7,0
DA:9,0
DA:11,0
DA:12,0
DA:14,0
DA:16,0
DA:17,0
DA:19,0
DA:21,0
DA:22,0
DA:24,0
DA:26,0
DA:27,0
DA:29,0
DA:31,0
DA:32,0
DA:34,0
DA:36,0
DA:37,0
DA:39,0
DA:41,0
DA:42,0
end_of_record
TN:
SF:/home/atcsol/git/JOSE_PHOTOSAT/uah_photsat_freertos/service_libraries/emu_tc_programming/src/emu_tc_programming.cpp
end_of_record
TN:
SF:/home/atcsol/git/JOSE_PHOTOSAT/uah_photsat_freertos/service_libraries/serialize/src/serialize.c
FN:29,deserialize_int16
FNDA:242,deserialize_int16
FN:50,deserialize_uint16
FNDA:607,deserialize_uint16
FN:71,deserialize_int32
FNDA:0,deserialize_int32
FN:92,deserialize_uint32
FNDA:6,deserialize_uint32
FN:113,deserialize_int64
FNDA:0,deserialize_int64
FN:134,deserialize_uint64
FNDA:0,deserialize_uint64
FN:155,deserialize_float
FNDA:3,deserialize_float
FN:178,serialize_int16
FNDA:242,serialize_int16
FN:203,serialize_uint16
FNDA:799,serialize_uint16
FN:222,serialize_int32
FNDA:0,serialize_int32
FN:243,serialize_uint32
FNDA:109,serialize_uint32
FN:262,serialize_int64
FNDA:0,serialize_int64
FN:283,serialize_uint64
FNDA:0,serialize_uint64
FN:304,serialize_float
FNDA:0,serialize_float
DA:29,242
DA:36,726
DA:41,484
DA:46,242
DA:50,607
DA:57,1821
DA:62,1214
DA:67,607
DA:71,0
DA:78,0
DA:83,0
DA:88,0
DA:92,6
DA:99,30
DA:104,24
DA:109,6
DA:113,0
DA:120,0
DA:125,0
DA:130,0
DA:134,0
DA:141,0
DA:146,0
DA:151,0
DA:155,3
DA:162,15
DA:167,12
DA:172,3
DA:178,242
DA:185,242
DA:187,726
DA:197,484
DA:201,242
DA:203,799
DA:210,799
DA:212,2397
DA:217,1598
DA:220,799
DA:222,0
DA:229,0
DA:231,0
DA:237,0
DA:241,0
DA:243,109
DA:249,109
DA:251,545
DA:256,436
DA:260,109
DA:262,0
DA:269,0
DA:271,0
DA:277,0
DA:281,0
DA:283,0
DA:290,0
DA:292,0
DA:298,0
DA:302,0
DA:304,0
DA:310,0
DA:312,0
DA:317,0
DA:321,0
end_of_record
TN:
SF:/home/atcsol/git/JOSE_PHOTOSAT/uah_photsat_freertos/service_libraries/ccsds_pus/src/ccsds_pus_format.c
FN:4,ccsds_pus_tc_read_fields
FNDA:12,ccsds_pus_tc_read_fields
FN:34,ccsds_pus_tm_write_fields
FNDA:0,ccsds_pus_tm_write_fields
DA:4,12
DA:10,12
DA:13,12
DA:16,12
DA:21,12
DA:24,12
DA:25,12
DA:26,12
DA:29,24
DA:30,12
DA:32,12
DA:34,0
DA:38,0
DA:41,0
DA:44,0
DA:47,0
DA:50,0
DA:51,0
DA:52,0
DA:54,0
DA:56,0
DA:58,0
DA:61,0
end_of_record
TN:
SF:/home/atcsol/git/JOSE_PHOTOSAT/uah_photsat_freertos/service_libraries/pus_services/pus_service129/src/aux_pus_service129_observ_mng.c
FN:39,get_abs_error
FNDA:1200,get_abs_error
FN:51,cal_w_control
FNDA:1200,cal_w_control
FN:63,pus_service129_set_Kp_Ki_Kd
FNDA:4,pus_service129_set_Kp_Ki_Kd
FN:71,pus_service129_set_attitude_target
FNDA:4,pus_service129_set_attitude_target
FN:84,pus_service129_set_num_of_images
FNDA:4,pus_service129_set_num_of_images
FN:91,pus_service129_get_pending_num_of_images
FNDA:400,pus_service129_get_pending_num_of_images
FN:97,pus_service129_observ_mode_entry
FNDA:0,pus_service129_observ_mode_entry
FN:102,pus_service129_observ_mode_exit
FNDA:1,pus_service129_observ_mode_exit
FN:108,pus_service129_mng_image_adquisition
FNDA:0,pus_service129_mng_image_adquisition
FN:131,pus_service129_apply_ctrl_algorithm
FNDA:600,pus_service129_apply_ctrl_algorithm
FN:151,pus_service129_update_system_data_pool
FNDA:600,pus_service129_update_system_data_pool
FN:172,pus_service129_attitude_error_under_limits
FNDA:600,pus_service129_attitude_error_under_limits
DA:39,1200
DA:42,1200
DA:43,20
DA:45,1180
DA:47,1200
DA:51,1200
DA:54,1200
DA:55,32
DA:57,1168
DA:59,1200
DA:63,4
DA:65,4
DA:66,4
DA:67,4
DA:69,4
DA:71,4
DA:74,4
DA:75,4
DA:77,4
DA:78,4
DA:79,4
DA:80,4
DA:82,4
DA:84,4
DA:87,4
DA:89,4
DA:91,400
DA:93,400
DA:97,0
DA:99,0
DA:100,0
DA:102,1
DA:104,1
DA:106,1
DA:108,0
DA:110,0
DA:115,0
DA:117,0
DA:120,0
DA:123,0
DA:125,0
DA:128,0
DA:131,600
DA:136,600
DA:139,600
DA:144,600
DA:148,600
DA:151,600
DA:156,600
DA:157,600
DA:159,600
DA:160,600
DA:163,600
DA:164,600
DA:166,600
DA:167,600
DA:170,600
DA:172,600
DA:182,600
DA:183,600
DA:184,600
DA:185,600
DA:187,600
DA:189,600
DA:192,600
end_of_record
TN:
SF:/home/atcsol/git/JOSE_PHOTOSAT/uah_photsat_freertos/service_libraries/pus_services/pus_service129/src/pus_service129.c
FN:17,pus_service129_startup
FNDA:1,pus_service129_startup
FN:32,pus_service129_do_attitude_ctrl
FNDA:600,pus_service129_do_attitude_ctrl
FN:44,pus_service129_exec_tc
FNDA:4,pus_service129_exec_tc
FN:62,pus_service129_start_observation
FNDA:0,pus_service129_start_observation
FN:69,pus_service129_take_image
FNDA:0,pus_service129_take_image
FN:76,pus_service129_is_last_image
FNDA:0,pus_service129_is_last_image
FN:82,pus_service129_end_observation
FNDA:0,pus_service129_end_observation
FN:89,pus_service129_is_observation_ready
FNDA:600,pus_service129_is_observation_ready
DA:17,1
DA:19,1
DA:21,1
DA:23,1
DA:25,1
DA:27,1
DA:29,1
DA:32,600
DA:36,600
DA:38,600
DA:42,600
DA:44,4
DA:47,4
DA:48,1
DA:49,1
DA:50,1
DA:51,1
DA:52,1
DA:53,1
DA:54,2
DA:55,2
DA:56,2
DA:57,0
DA:58,0
DA:60,4
DA:62,0
DA:64,0
DA:66,0
DA:69,0
DA:71,0
DA:73,0
DA:76,0
DA:78,0
DA:82,0
DA:84,0
DA:86,0
DA:89,600
DA:91,1000
DA:92,400
end_of_record
TN:
SF:/home/atcsol/git/JOSE_PHOTOSAT/uah_photsat_freertos/service_libraries/pus_services/pus_service129/src/aux_pus_service129_exec_tc.c
FN:34,ThetaIsValid
FNDA:2,ThetaIsValid
FN:40,NumOfImagesIsValid
FNDA:1,NumOfImagesIsValid
FN:46,PID_Kx_IsValid
FNDA:3,PID_Kx_IsValid
FN:52,pus_service129_exec_TC_129_1
FNDA:1,pus_service129_exec_TC_129_1
FN:99,pus_service129_exec_TC_129_2
FNDA:1,pus_service129_exec_TC_129_2
FN:143,pus_service129_exec_TC_129_3
FNDA:2,pus_service129_exec_TC_129_3
DA:34,2
DA:37,2
DA:40,1
DA:42,1
DA:46,3
DA:48,3
DA:52,1
DA:62,1
DA:63,1
DA:64,1
DA:66,1
DA:69,0
DA:74,1
DA:77,1
DA:79,1
DA:81,1
DA:83,1
DA:87,0
DA:95,1
DA:97,1
DA:99,1
DA:108,1
DA:109,1
DA:110,1
DA:113,1
DA:116,0
DA:121,1
DA:124,1
DA:126,1
DA:128,1
DA:131,0
DA:139,1
DA:141,1
DA:143,2
DA:146,2
DA:148,2
DA:150,2
DA:152,2
DA:155,2
DA:158,2
DA:160,2
end_of_record
TN:
SF:/home/atcsol/git/JOSE_PHOTOSAT/uah_photsat_freertos/service_libraries/pus_services/pus_tm_handler/scr/pus_tm_handler.c
FN:34,get_next_tm_packet_seq_ctrl
FNDA:100,get_next_tm_packet_seq_ctrl
FN:46,tm_handler_mem_alloc_and_startup
FNDA:100,tm_handler_mem_alloc_and_startup
FN:74,tm_handler_build_packet_header
FNDA:100,tm_handler_build_packet_header
FN:88,tm_handler_serialize_packet_header
FNDA:100,tm_handler_serialize_packet_header
FN:103,tm_handler_build_df_header
FNDA:100,tm_handler_build_df_header
FN:125,tm_handler_serialize_df_header
FNDA:100,tm_handler_serialize_df_header
FN:150,tm_handler_close_and_tx
FNDA:100,tm_handler_close_and_tx
FN:181,tm_handler_free_mem
FNDA:100,tm_handler_free_mem
FN:203,tm_handler_is_valid_next_appdata_field
FNDA:613,tm_handler_is_valid_next_appdata_field
FN:219,tm_handler_append_uint8_appdata_field
FNDA:228,tm_handler_append_uint8_appdata_field
FN:236,tm_handler_append_uint16_appdata_field
FNDA:139,tm_handler_append_uint16_appdata_field
FN:254,tm_handler_append_uint32_appdata_field
FNDA:6,tm_handler_append_uint32_appdata_field
FN:272,tm_handler_append_uint64_appdata_field
FNDA:0,tm_handler_append_uint64_appdata_field
FN:290,tm_handler_append_int8_appdata_field
FNDA:0,tm_handler_append_int8_appdata_field
FN:307,tm_handler_append_int16_appdata_field
FNDA:240,tm_handler_append_int16_appdata_field
FN:325,tm_handler_append_int32_appdata_field
FNDA:0,tm_handler_append_int32_appdata_field
FN:343,tm_handler_append_int64_appdata_field
FNDA:0,tm_handler_append_int64_appdata_field
FN:361,tm_handler_append_byte_array_appdata_field
FNDA:0,tm_handler_append_byte_array_appdata_field
FN:382,tm_handler_append_data_pool_item
FNDA:24,tm_handler_append_data_pool_item
DA:34,100
DA:36,100
DA:39,100
DA:40,100
DA:41,0
DA:43,100
DA:46,100
DA:48,100
DA:50,100
DA:51,100
DA:53,100
DA:55,100
DA:58,100
DA:61,0
DA:62,0
DA:64,0
DA:69,0
DA:71,100
DA:74,100
DA:76,100
DA:79,100
DA:80,100
DA:82,100
DA:83,100
DA:84,100
DA:86,100
DA:88,100
DA:90,100
DA:92,100
DA:95,100
DA:98,100
DA:101,100
DA:103,100
DA:106,100
DA:109,100
DA:110,100
DA:113,100
DA:115,100
DA:117,100
DA:120,100
DA:121,100
DA:123,100
DA:125,100
DA:127,100
DA:130,100
DA:131,100
DA:132,100
DA:135,100
DA:138,100
DA:142,100
DA:145,100
DA:148,100
DA:150,100
DA:153,100
DA:155,100
DA:157,100
DA:159,100
DA:160,100
DA:162,100
DA:163,100
DA:166,100
DA:170,0
DA:171,0
DA:176,0
DA:178,100
DA:181,100
DA:183,100
DA:185,100
DA:187,100
DA:189,100
DA:192,0
DA:194,100
DA:197,0
DA:199,100
DA:203,613
DA:206,613
DA:208,613
DA:209,613
DA:210,613
DA:211,613
DA:212,613
DA:215,613
DA:219,228
DA:222,228
DA:223,228
DA:224,228
DA:226,228
DA:228,228
DA:230,0
DA:233,228
DA:236,139
DA:238,139
DA:239,139
DA:240,139
DA:242,139
DA:243,139
DA:245,139
DA:247,0
DA:250,139
DA:254,6
DA:256,6
DA:257,6
DA:258,6
DA:260,6
DA:261,6
DA:263,6
DA:265,0
DA:268,6
DA:272,0
DA:274,0
DA:275,0
DA:276,0
DA:278,0
DA:279,0
DA:281,0
DA:283,0
DA:286,0
DA:290,0
DA:293,0
DA:294,0
DA:295,0
DA:297,0
DA:299,0
DA:301,0
DA:304,0
DA:307,240
DA:309,240
DA:310,240
DA:311,240
DA:313,240
DA:314,240
DA:316,240
DA:318,0
DA:321,240
DA:325,0
DA:327,0
DA:328,0
DA:329,0
DA:331,0
DA:332,0
DA:334,0
DA:336,0
DA:339,0
DA:343,0
DA:345,0
DA:346,0
DA:347,0
DA:349,0
DA:350,0
DA:352,0
DA:354,0
DA:357,0
DA:361,0
DA:363,0
DA:364,0
DA:365,0
DA:367,0
DA:369,0
DA:370,0
DA:372,0
DA:375,0
DA:378,0
DA:382,24
DA:388,24
DA:390,24
DA:392,0
DA:393,0
DA:395,0
DA:396,24
DA:397,24
DA:398,24
DA:399,24
DA:400,0
DA:401,0
DA:404,24
end_of_record
TN:
SF:/home/atcsol/git/JOSE_PHOTOSAT/uah_photsat_freertos/service_libraries/pus_services/pus_service128/src/pus_service128.c
FN:38,pus_service128_exec_tc
FNDA:1,pus_service128_exec_tc
FN:50,pus_service128_exec_TC_128_1
FNDA:1,pus_service128_exec_TC_128_1
DA:38,1
DA:40,1
DA:41,1
DA:42,1
DA:43,1
DA:44,0
DA:45,0
DA:48,1
DA:50,1
DA:54,1
DA:58,1
DA:62,1
DA:63,1
end_of_record
TN:
SF:/home/atcsol/git/JOSE_PHOTOSAT/uah_photsat_freertos/service_libraries/pus_services/pus_service04/src/aux_pus_service4_exec_tc.c
FN:41,pus_service4_exec_TC_4_1
FNDA:0,pus_service4_exec_TC_4_1
FN:139,pus_service4_exec_TC_4_6
FNDA:0,pus_service4_exec_TC_4_6
FN:194,pus_service4_exec_TC_4_7
FNDA:0,pus_service4_exec_TC_4_7
DA:41,0
DA:43,0
DA:45,0
DA:47,0
DA:49,0
DA:54,0
DA:56,0
DA:62,0
DA:64,0
DA:66,0
DA:68,0
DA:70,0
DA:73,0
DA:77,0
DA:81,0
DA:85,0
DA:89,0
DA:93,0
DA:94,0
DA:97,0
DA:101,0
DA:102,0
DA:105,0
DA:109,0
DA:110,0
DA:112,0
DA:115,0
DA:117,0
DA:122,0
DA:128,0
DA:130,0
DA:137,0
DA:139,0
DA:147,0
DA:150,0
DA:152,0
DA:155,0
DA:159,0
DA:161,0
DA:167,0
DA:169,0
DA:171,0
DA:173,0
DA:174,0
DA:178,0
DA:184,0
DA:189,0
DA:192,0
DA:194,0
DA:202,0
DA:205,0
DA:207,0
DA:210,0
DA:214,0
DA:216,0
DA:221,0
DA:223,0
DA:227,0
DA:229,0
DA:230,0
DA:234,0
DA:238,0
DA:245,0
DA:247,0
end_of_record
TN:
SF:/home/atcsol/git/JOSE_PHOTOSAT/uah_photsat_freertos/service_libraries/pus_services/pus_service04/src/aux_pus_service4_utils.c
FN:39,pus_service4_add_PID_stats
FNDA:0,pus_service4_add_PID_stats
FN:68,pus_service4_delete_PID_stats
FNDA:0,pus_service4_delete_PID_stats
FN:85,pus_service4_delete_all_stats
FNDA:0,pus_service4_delete_all_stats
FN:98,pus_service4_is_stats_index_defined
FNDA:244,pus_service4_is_stats_index_defined
FN:118,pus_service4_is_PID_stats_defined
FNDA:0,pus_service4_is_PID_stats_defined
FN:130,pus_service4_total_stats_defined
FNDA:0,pus_service4_total_stats_defined
FN:142,pus_service4_get_PID_defined_stats_index
FNDA:0,pus_service4_get_PID_defined_stats_index
FN:177,pus_service4_get_free_index
FNDA:0,pus_service4_get_free_index
FN:201,pus_service4_reset_stats_index
FNDA:0,pus_service4_reset_stats_index
FN:216,pus_service4_update_PID_stats
FNDA:0,pus_service4_update_PID_stats
DA:39,0
DA:41,0
DA:46,0
DA:48,0
DA:51,0
DA:55,0
DA:57,0
DA:58,0
DA:60,0
DA:64,0
DA:68,0
DA:70,0
DA:75,0
DA:77,0
DA:78,0
DA:81,0
DA:85,0
DA:87,0
DA:89,0
DA:91,0
DA:94,0
DA:98,244
DA:100,244
DA:102,244
DA:104,244
DA:106,0
DA:107,0
DA:110,0
DA:115,244
DA:118,0
DA:120,0
DA:125,0
DA:127,0
DA:130,0
DA:132,0
DA:133,0
DA:134,0
DA:135,0
DA:139,0
DA:142,0
DA:145,0
DA:147,0
DA:149,0
DA:150,0
DA:152,0
DA:153,0
DA:155,0
DA:156,0
DA:157,0
DA:160,0
DA:170,0
DA:173,0
DA:177,0
DA:179,0
DA:181,0
DA:182,0
DA:183,0
DA:185,0
DA:186,0
DA:188,0
DA:189,0
DA:195,0
DA:198,0
DA:201,0
DA:203,0
DA:205,0
DA:207,0
DA:208,0
DA:209,0
DA:212,0
DA:216,0
DA:218,0
DA:220,0
DA:221,0
DA:223,0
DA:225,0
DA:228,0
DA:229,0
DA:231,0
DA:232,0
DA:234,0
DA:236,0
DA:237,0
DA:239,0
DA:240,0
DA:242,0
DA:247,0
DA:248,0
DA:253,0
DA:255,0
DA:257,0
DA:258,0
DA:260,0
DA:261,0
DA:265,0
DA:269,0
DA:272,0
end_of_record
TN:
SF:/home/atcsol/git/JOSE_PHOTOSAT/uah_photsat_freertos/service_libraries/pus_services/pus_service04/src/pus_service4.c
FN:38,pus_service4_startup
FNDA:1,pus_service4_startup
FN:56,pus_service4_update_all_stats
FNDA:60,pus_service4_update_all_stats
FN:69,pus_service4_exec_tc
FNDA:0,pus_service4_exec_tc
DA:38,1
DA:41,5
DA:44,4
DA:46,0
DA:54,1
DA:56,60
DA:59,300
DA:61,240
DA:63,0
DA:67,60
DA:69,0
DA:70,0
DA:71,0
DA:72,0
DA:74,0
DA:75,0
DA:76,0
DA:77,0
DA:78,0
DA:79,0
DA:80,0
DA:81,0
DA:82,0
DA:85,0
end_of_record
TN:
SF:/home/atcsol/git/JOSE_PHOTOSAT/uah_photsat_freertos/service_libraries/pus_services/pus_service05/src/aux_pus_service5_exec_tc.c
FN:33,pus_service5_exec_TC_5_5_5_6
FNDA:0,pus_service5_exec_TC_5_5_5_6
FN:81,pus_service5_exec_TC_5_5
FNDA:0,pus_service5_exec_TC_5_5
FN:87,pus_service5_exec_TC_5_6
FNDA:0,pus_service5_exec_TC_5_6
DA:33,0
DA:42,0
DA:45,0
DA:47,0
DA:50,0
DA:54,0
DA:56,0
DA:62,0
DA:64,0
DA:66,0
DA:68,0
DA:72,0
DA:78,0
DA:79,0
DA:81,0
DA:83,0
DA:85,0
DA:87,0
DA:89,0
DA:91,0
end_of_record
TN:
SF:/home/atcsol/git/JOSE_PHOTOSAT/uah_photsat_freertos/service_libraries/pus_services/pus_service05/src/aux_pus_service5_tx_tm.c
FN:33,pus_service5_tx_TM_5_X_no_aux_data
FNDA:1,pus_service5_tx_TM_5_X_no_aux_data
FN:65,pus_service5_tx_TM_5_X_with_aux_data_prologue
FNDA:2,pus_service5_tx_TM_5_X_with_aux_data_prologue
FN:81,pus_service5_tx_TM_5_X_with_aux_data_epilogue
FNDA:2,pus_service5_tx_TM_5_X_with_aux_data_epilogue
DA:33,1
DA:35,1
DA:40,1
DA:43,1
DA:45,1
DA:48,1
DA:51,1
DA:53,1
DA:54,1
DA:57,1
DA:61,1
DA:65,2
DA:68,2
DA:71,2
DA:74,2
DA:78,2
DA:81,2
DA:84,2
DA:86,2
DA:88,2
DA:90,2
end_of_record
TN:
SF:/home/atcsol/git/JOSE_PHOTOSAT/uah_photsat_freertos/service_libraries/pus_services/pus_service05/src/pus_service5.c
FN:36,pus_service5_get_EvID_type
FNDA:12,pus_service5_get_EvID_type
FN:73,pus_service5_is_EvID_valid
FNDA:5,pus_service5_is_EvID_valid
FN:80,pus_service5_is_EvID_enabled
FNDA:3,pus_service5_is_EvID_enabled
FN:93,pus_service5_exec_tc
FNDA:0,pus_service5_exec_tc
FN:107,pus_service1_tx_TM_5_1_start_up
FNDA:1,pus_service1_tx_TM_5_1_start_up
FN:115,pus_service1_tx_TM_5_X_param_out_of_limit
FNDA:0,pus_service1_tx_TM_5_X_param_out_of_limit
FN:157,pus_service1_tx_TM_5_X_param_check_value_fail
FNDA:2,pus_service1_tx_TM_5_X_param_check_value_fail
DA:36,12
DA:38,12
DA:39,12
DA:40,12
DA:42,12
DA:43,2
DA:44,2
DA:45,2
DA:47,2
DA:48,0
DA:49,0
DA:50,0
DA:52,0
DA:53,0
DA:54,0
DA:55,0
DA:57,0
DA:58,10
DA:59,10
DA:60,10
DA:63,10
DA:65,0
DA:66,0
DA:69,12
DA:73,5
DA:75,5
DA:77,5
DA:80,3
DA:82,3
DA:84,3
DA:86,3
DA:89,3
DA:93,0
DA:95,0
DA:96,0
DA:97,0
DA:98,0
DA:99,0
DA:100,0
DA:101,0
DA:102,0
DA:103,0
DA:105,0
DA:107,1
DA:109,1
DA:111,1
DA:115,0
DA:118,0
DA:121,0
DA:125,0
DA:129,0
DA:132,0
DA:133,0
DA:136,0
DA:137,0
DA:140,0
DA:141,0
DA:143,0
DA:144,0
DA:149,0
DA:153,0
DA:157,2
DA:160,2
DA:163,2
DA:167,2
DA:171,2
DA:174,2
DA:175,2
DA:178,4
DA:179,2
DA:182,4
DA:183,2
DA:186,4
DA:187,2
DA:189,2
DA:190,2
DA:195,2
DA:199,2
end_of_record
TN:
SF:/home/atcsol/git/JOSE_PHOTOSAT/uah_photsat_freertos/service_libraries/pus_services/pus_service05/src/aux_pus_service5_utils.c
FN:36,pus_service5_cal_EvID_TM_5_X_subtype
FNDA:3,pus_service5_cal_EvID_TM_5_X_subtype
FN:42,pus_service5_check_EvID_enable_flag
FNDA:5,pus_service5_check_EvID_enable_flag
FN:89,pus_service5_set_EvID_enable_flag
FNDA:0,pus_service5_set_EvID_enable_flag
DA:36,3
DA:38,3
DA:42,5
DA:44,5
DA:45,5
DA:46,5
DA:50,5
DA:51,1
DA:52,1
DA:53,1
DA:54,1
DA:55,0
DA:56,0
DA:57,0
DA:58,0
DA:59,0
DA:60,0
DA:61,0
DA:62,0
DA:63,4
DA:64,4
DA:65,4
DA:66,4
DA:67,0
DA:68,0
DA:69,0
DA:72,5
DA:73,5
DA:78,5
DA:79,5
DA:81,5
DA:82,5
DA:86,5
DA:89,0
DA:91,0
DA:92,0
DA:96,0
DA:97,0
DA:98,0
DA:99,0
DA:100,0
DA:101,0
DA:102,0
DA:103,0
DA:104,0
DA:105,0
DA:106,0
DA:107,0
DA:108,0
DA:109,0
DA:110,0
DA:111,0
DA:112,0
DA:113,0
DA:114,0
DA:115,0
DA:119,0
DA:120,0
DA:125,0
DA:126,0
DA:128,0
DA:129,0
DA:130,0
DA:132,0
DA:137,0
end_of_record
TN:
SF:/home/atcsol/git/JOSE_PHOTOSAT/uah_photsat_freertos/service_libraries/pus_services/pus_service06/src/aux_pus_service6_tc_exec.c
FN:40,pus_service6_exec_TC_6_2
FNDA:0,pus_service6_exec_TC_6_2
FN:122,pus_service6_exec_TC_6_5
FNDA:0,pus_service6_exec_TC_6_5
FN:201,pus_service6_exec_TC_6_9
FNDA:0,pus_service6_exec_TC_6_9
DA:40,0
DA:50,0
DA:53,0
DA:56,0
DA:59,0
DA:62,0
DA:64,0
DA:67,0
DA:69,0
DA:73,0
DA:75,0
DA:78,0
DA:79,0
DA:81,0
DA:82,0
DA:84,0
DA:86,0
DA:92,0
DA:95,0
DA:98,0
DA:102,0
DA:105,0
DA:108,0
DA:109,0
DA:112,0
DA:119,0
DA:120,0
DA:122,0
DA:132,0
DA:135,0
DA:138,0
DA:141,0
DA:144,0
DA:146,0
DA:149,0
DA:151,0
DA:155,0
DA:158,0
DA:162,0
DA:164,0
DA:167,0
DA:168,0
DA:170,0
DA:171,0
DA:176,0
DA:181,0
DA:184,0
DA:186,0
DA:190,0
DA:198,0
DA:199,0
DA:201,0
DA:211,0
DA:214,0
DA:217,0
DA:220,0
DA:223,0
DA:225,0
DA:228,0
DA:230,0
DA:234,0
DA:237,0
DA:241,0
DA:243,0
DA:246,0
DA:247,0
DA:249,0
DA:250,0
DA:255,0
DA:259,0
DA:262,0
DA:264,0
DA:268,0
DA:276,0
DA:277,0
end_of_record
TN:
SF:/home/atcsol/git/JOSE_PHOTOSAT/uah_photsat_freertos/service_libraries/pus_services/pus_service06/src/aux_pus_service6_utils.c
FN:37,pus_service6_is_address_valid
FNDA:0,pus_service6_is_address_valid
FN:43,pus_service6_is_MemID_WriteEnabled
FNDA:0,pus_service6_is_MemID_WriteEnabled
FN:49,pus_service6_MemID_write_data
FNDA:0,pus_service6_MemID_write_data
FN:57,pus_service6_MemID_read_data
FNDA:0,pus_service6_MemID_read_data
FN:65,pus_service6_MemID_check_data
FNDA:0,pus_service6_MemID_check_data
DA:37,0
DA:39,0
DA:43,0
DA:45,0
DA:49,0
DA:51,0
DA:53,0
DA:57,0
DA:60,0
DA:62,0
DA:65,0
DA:68,0
DA:70,0
end_of_record
TN:
SF:/home/atcsol/git/JOSE_PHOTOSAT/uah_photsat_freertos/service_libraries/pus_services/pus_service06/src/pus_service6.c
FN:39,pus_service6_exec_tc
FNDA:0,pus_service6_exec_tc
DA:39,0
DA:40,0
DA:41,0
DA:42,0
DA:44,0
DA:45,0
DA:46,0
DA:47,0
DA:48,0
DA:49,0
DA:50,0
DA:51,0
DA:52,0
DA:55,0
end_of_record
TN:
SF:/home/atcsol/git/JOSE_PHOTOSAT/uah_photsat_freertos/service_libraries/pus_services/pus_service06/src/aux_pus_service6_tx_tm.c
FN:36,pus_service6_tx_TM_6_6
FNDA:0,pus_service6_tx_TM_6_6
FN:79,pus_service6_tx_TM_6_10
FNDA:0,pus_service6_tx_TM_6_10
DA:36,0
DA:39,0
DA:44,0
DA:46,0
DA:49,0
DA:52,0
DA:55,0
DA:58,0
DA:61,0
DA:62,0
DA:63,0
DA:67,0
DA:69,0
DA:72,0
DA:75,0
DA:79,0
DA:82,0
DA:87,0
DA:89,0
DA:92,0
DA:95,0
DA:98,0
DA:101,0
DA:104,0
DA:107,0
DA:109,0
DA:112,0
DA:115,0
end_of_record
TN:
SF:/home/atcsol/git/JOSE_PHOTOSAT/uah_photsat_freertos/service_libraries/pus_services/pus_service20/src/aux_pus_sevice20_exec_tc.c
FN:34,pus_service20_exec_TC_20_1
FNDA:0,pus_service20_exec_TC_20_1
FN:81,pus_service20_exec_TC_20_3
FNDA:0,pus_service20_exec_TC_20_3
DA:34,0
DA:42,0
DA:45,0
DA:47,0
DA:50,0
DA:54,0
DA:56,0
DA:61,0
DA:64,0
DA:68,0
DA:69,0
DA:70,0
DA:77,0
DA:79,0
DA:81,0
DA:89,0
DA:92,0
DA:95,0
DA:97,0
DA:100,0
DA:102,0
DA:107,0
DA:110,0
DA:114,0
DA:116,0
DA:124,0
DA:125,0
DA:127,0
DA:130,0
DA:134,0
DA:137,0
DA:140,0
DA:148,0
DA:150,0
end_of_record
TN:
SF:/home/atcsol/git/JOSE_PHOTOSAT/uah_photsat_freertos/service_libraries/pus_services/pus_service20/src/aux_pus_service20_tx_tm.c
FN:37,pus_service20_tx_TM_20_2
FNDA:0,pus_service20_tx_TM_20_2
DA:37,0
DA:39,0
DA:44,0
DA:46,0
DA:49,0
DA:52,0
DA:55,0
DA:58,0
DA:60,0
DA:63,0
DA:66,0
end_of_record
TN:
SF:/home/atcsol/git/JOSE_PHOTOSAT/uah_photsat_freertos/service_libraries/pus_services/pus_service20/src/pus_service20.c
FN:43,pus_service20_exec_tc
FNDA:0,pus_service20_exec_tc
DA:43,0
DA:45,0
DA:46,0
DA:47,0
DA:48,0
DA:49,0
DA:50,0
DA:51,0
DA:52,0
DA:53,0
DA:58,0
end_of_record
TN:
SF:/home/atcsol/git/JOSE_PHOTOSAT/uah_photsat_freertos/service_libraries/pus_services/pus_service03/src/pus_service3.c
FN:64,pus_service3_do_HK
FNDA:60,pus_service3_do_HK
FN:83,pus_service3_exec_tc
FNDA:0,pus_service3_exec_tc
DA:64,60
DA:68,1020
DA:69,960
DA:70,60
DA:71,60
DA:74,60
DA:76,60
DA:81,60
DA:83,0
DA:84,0
DA:85,0
DA:86,0
DA:87,0
DA:88,0
DA:89,0
DA:90,0
DA:91,0
DA:92,0
DA:93,0
DA:94,0
DA:95,0
DA:98,0
end_of_record
TN:
SF:/home/atcsol/git/JOSE_PHOTOSAT/uah_photsat_freertos/service_libraries/pus_services/pus_service03/src/aux_pus_service3_utils.c
FN:35,pus_service3_get_SID_index
FNDA:60,pus_service3_get_SID_index
DA:35,60
DA:37,60
DA:39,300
DA:40,240
DA:41,60
DA:43,60
DA:44,60
DA:48,60
end_of_record
TN:
SF:/home/atcsol/git/JOSE_PHOTOSAT/uah_photsat_freertos/service_libraries/pus_services/pus_service03/src/aux_pus_service3_tx_tm.c
FN:45,pus_service3_tx_TM_3_25
FNDA:60,pus_service3_tx_TM_3_25
DA:45,60
DA:50,60
DA:52,60
DA:54,60
DA:55,60
DA:57,480
DA:58,420
DA:60,420
DA:62,420
DA:66,60
DA:68,60
DA:71,60
DA:75,60
end_of_record
TN:
SF:/home/atcsol/git/JOSE_PHOTOSAT/uah_photsat_freertos/service_libraries/pus_services/pus_service03/src/aux_pus_service3_exec_tc.c
FN:44,pus_service3_exec_TC_3_5_3_6
FNDA:0,pus_service3_exec_TC_3_5_3_6
FN:99,pus_service3_exec_TC_3_5
FNDA:0,pus_service3_exec_TC_3_5
FN:105,pus_service3_exec_TC_3_6
FNDA:0,pus_service3_exec_TC_3_6
FN:111,pus_service3_exec_TC_3_31
FNDA:0,pus_service3_exec_TC_3_31
DA:44,0
DA:54,0
DA:57,0
DA:59,0
DA:62,0
DA:66,0
DA:68,0
DA:73,0
DA:75,0
DA:77,0
DA:79,0
DA:80,0
DA:82,0
DA:84,0
DA:86,0
DA:90,0
DA:96,0
DA:97,0
DA:99,0
DA:101,0
DA:103,0
DA:105,0
DA:107,0
DA:109,0
DA:111,0
DA:121,0
DA:124,0
DA:127,0
DA:130,0
DA:133,0
DA:137,0
DA:139,0
DA:144,0
DA:146,0
DA:148,0
DA:150,0
DA:151,0
DA:153,0
DA:157,0
DA:163,0
DA:164,0
end_of_record
TN:
SF:/home/atcsol/git/JOSE_PHOTOSAT/uah_photsat_freertos/service_libraries/pus_services/src/pus_services.c
FN:39,pus_services_startup
FNDA:1,pus_services_startup
FN:54,pus_services_mng_reboot
FNDA:1,pus_services_mng_reboot
FN:60,pus_services_do_FDIR
FNDA:60,pus_services_do_FDIR
FN:139,pus_services_update_params
FNDA:60,pus_services_update_params
FN:147,pus_services_sat_in_observation_mode
FNDA:10,pus_services_sat_in_observation_mode
DA:39,1
DA:41,1
DA:43,1
DA:45,1
DA:47,1
DA:49,1
DA:51,1
DA:52,1
DA:54,1
DA:57,1
DA:58,0
DA:60,60
DA:66,60
DA:68,1020
DA:70,960
DA:74,85
DA:75,85
DA:78,85
DA:80,85
DA:81,0
DA:86,0
DA:89,0
DA:91,0
DA:93,0
DA:95,0
DA:102,0
DA:103,85
DA:108,85
DA:112,85
DA:114,2
DA:116,2
DA:118,2
DA:125,85
DA:126,0
DA:128,0
DA:133,85
DA:134,2
DA:137,60
DA:139,60
DA:142,60
DA:144,60
DA:147,10
DA:149,10
end_of_record
TN:
SF:/home/atcsol/git/JOSE_PHOTOSAT/uah_photsat_freertos/service_libraries/pus_services/src/aux_pus_services_utils.c
FN:31,pus_services_TM_X_Y_write_PIDValue
FNDA:420,pus_services_TM_X_Y_write_PIDValue
FN:64,pus_services_TM_X_Y_write_saved_PIDValue
FNDA:0,pus_services_TM_X_Y_write_saved_PIDValue
DA:31,420
DA:34,420
DA:36,420
DA:39,420
DA:41,0
DA:42,0
DA:45,0
DA:47,240
DA:48,240
DA:49,240
DA:51,240
DA:52,180
DA:53,180
DA:54,180
DA:56,180
DA:57,0
DA:58,0
DA:61,420
DA:64,0
DA:67,0
DA:69,0
DA:72,0
DA:74,0
DA:75,0
DA:76,0
DA:78,0
DA:79,0
DA:80,0
DA:81,0
DA:83,0
DA:85,0
DA:86,0
DA:87,0
DA:89,0
DA:90,0
DA:91,0
DA:94,0
end_of_record
TN:
SF:/home/atcsol/git/JOSE_PHOTOSAT/uah_photsat_freertos/service_libraries/pus_services/pus_service02/src/pus_service2.c
FN:40,pus_service2_exec_tc
FNDA:0,pus_service2_exec_tc
FN:51,pus_service2_exec_TC_2_1
FNDA:0,pus_service2_exec_TC_2_1
DA:40,0
DA:41,0
DA:42,0
DA:43,0
DA:44,0
DA:45,0
DA:46,0
DA:49,0
DA:51,0
DA:58,0
DA:61,0
DA:63,0
DA:66,0
DA:70,0
DA:72,0
DA:77,0
DA:79,0
DA:81,0
DA:83,0
DA:85,0
DA:89,0
DA:93,0
DA:102,0
DA:103,0
end_of_record
TN:
SF:/home/atcsol/git/JOSE_PHOTOSAT/uah_photsat_freertos/service_libraries/pus_services/pus_tc_handler/src/pus_tc_handler.c
FN:30,tc_handler_build_from_descriptor
FNDA:12,tc_handler_build_from_descriptor
FN:55,tc_handler_is_tc_accept_ack_enabled
FNDA:9,tc_handler_is_tc_accept_ack_enabled
FN:67,tc_handler_is_tc_start_exec_ack_enabled
FNDA:11,tc_handler_is_tc_start_exec_ack_enabled
FN:79,tc_handler_is_tc_progress_exec_ack_enabled
FNDA:0,tc_handler_is_tc_progress_exec_ack_enabled
FN:91,tc_handler_is_tc_completion_exec_ack_enabled
FNDA:11,tc_handler_is_tc_completion_exec_ack_enabled
FN:102,tc_handler_start_up_execution
FNDA:11,tc_handler_start_up_execution
FN:123,tc_handler_free_memory
FNDA:22,tc_handler_free_memory
FN:144,tc_handler_is_valid_next_appdata_field
FNDA:32,tc_handler_is_valid_next_appdata_field
FN:166,tc_handler_get_uint8_appdata_field
FNDA:13,tc_handler_get_uint8_appdata_field
FN:183,tc_handler_get_uint16_appdata_field
FNDA:10,tc_handler_get_uint16_appdata_field
FN:201,tc_handler_get_uint32_appdata_field
FNDA:0,tc_handler_get_uint32_appdata_field
FN:219,tc_handler_get_uint64_appdata_field
FNDA:0,tc_handler_get_uint64_appdata_field
FN:237,tc_handler_get_int8_appdata_field
FNDA:0,tc_handler_get_int8_appdata_field
FN:255,tc_handler_get_int16_appdata_field
FNDA:2,tc_handler_get_int16_appdata_field
FN:273,tc_handler_get_int32_appdata_field
FNDA:0,tc_handler_get_int32_appdata_field
FN:291,tc_handler_get_int64_appdata_field
FNDA:0,tc_handler_get_int64_appdata_field
FN:309,tc_handler_get_float_appdata_field
FNDA:3,tc_handler_get_float_appdata_field
FN:328,tc_handler_get_byte_array_appdata_field
FNDA:4,tc_handler_get_byte_array_appdata_field
FN:353,tc_handler_get_tc_mem_descriptor_from_remaining_appdata
FNDA:1,tc_handler_get_tc_mem_descriptor_from_remaining_appdata
DA:30,12
DA:32,12
DA:34,12
DA:35,0
DA:39,12
DA:42,12
DA:47,12
DA:55,9
DA:57,9
DA:58,9
DA:60,9
DA:64,9
DA:67,11
DA:69,11
DA:70,11
DA:72,11
DA:76,11
DA:79,0
DA:81,0
DA:82,0
DA:84,0
DA:88,0
DA:91,11
DA:92,11
DA:93,11
DA:95,11
DA:99,11
DA:102,11
DA:104,11
DA:106,11
DA:107,0
DA:108,11
DA:110,0
DA:111,0
DA:115,11
DA:119,11
DA:123,22
DA:125,22
DA:127,22
DA:128,0
DA:129,22
DA:131,0
DA:135,22
DA:138,22
DA:140,22
DA:144,32
DA:147,32
DA:149,32
DA:152,32
DA:153,32
DA:156,32
DA:159,32
DA:162,32
DA:166,13
DA:169,13
DA:170,13
DA:171,13
DA:173,13
DA:175,13
DA:177,0
DA:180,13
DA:183,10
DA:185,10
DA:186,10
DA:187,10
DA:189,20
DA:190,10
DA:192,10
DA:194,0
DA:197,10
DA:201,0
DA:203,0
DA:204,0
DA:205,0
DA:207,0
DA:208,0
DA:210,0
DA:212,0
DA:215,0
DA:219,0
DA:221,0
DA:222,0
DA:223,0
DA:225,0
DA:226,0
DA:228,0
DA:230,0
DA:233,0
DA:237,0
DA:240,0
DA:241,0
DA:242,0
DA:244,0
DA:245,0
DA:247,0
DA:249,0
DA:252,0
DA:255,2
DA:257,2
DA:258,2
DA:259,2
DA:261,4
DA:262,2
DA:264,2
DA:266,0
DA:269,2
DA:273,0
DA:275,0
DA:276,0
DA:277,0
DA:279,0
DA:280,0
DA:282,0
DA:284,0
DA:287,0
DA:291,0
DA:293,0
DA:294,0
DA:295,0
DA:297,0
DA:298,0
DA:300,0
DA:302,0
DA:305,0
DA:309,3
DA:312,3
DA:313,3
DA:314,3
DA:316,6
DA:317,3
DA:319,3
DA:321,0
DA:324,3
DA:328,4
DA:330,4
DA:331,4
DA:332,4
DA:334,8
DA:336,4
DA:337,4
DA:338,4
DA:341,4
DA:344,0
DA:347,4
DA:353,1
DA:356,1
DA:358,1
DA:360,1
DA:362,1
DA:364,1
DA:365,1
DA:366,1
DA:368,1
DA:372,0
DA:373,0
DA:375,0
DA:378,1
end_of_record
TN:
SF:/home/atcsol/git/JOSE_PHOTOSAT/uah_photsat_freertos/service_libraries/pus_services/pus_service12/src/aux_pus_service12_tx_tm.c
FN:32,pus_service12_tx_TM_12_12
FNDA:6,pus_service12_tx_TM_12_12
DA:32,6
DA:34,6
DA:37,6
DA:42,6
DA:44,6
DA:47,6
DA:50,12
DA:56,6
DA:57,6
DA:60,12
DA:61,6
DA:64,12
DA:65,6
DA:67,6
DA:71,12
DA:72,6
DA:73,6
DA:75,6
DA:77,6
DA:81,0
DA:83,0
DA:88,12
DA:89,6
DA:90,6
DA:93,12
DA:94,6
DA:95,6
DA:98,6
DA:102,6
DA:107,6
DA:113,6
DA:115,6
DA:118,6
DA:123,0
DA:126,6
end_of_record
TN:
SF:/home/atcsol/git/JOSE_PHOTOSAT/uah_photsat_freertos/service_libraries/pus_services/pus_service12/src/aux_pus_service12_exec_tc.c
FN:47,pus_service12_exec_TC_12_1
FNDA:2,pus_service12_exec_TC_12_1
FN:100,pus_service12_exec_TC_12_2
FNDA:0,pus_service12_exec_TC_12_2
FN:154,pus_service12_exec_TC_12_5
FNDA:2,pus_service12_exec_TC_12_5
FN:260,pus_service12_exec_TC_12_6
FNDA:0,pus_service12_exec_TC_12_6
DA:47,2
DA:55,2
DA:58,2
DA:61,2
DA:63,0
DA:66,2
DA:68,0
DA:72,2
DA:75,2
DA:77,2
DA:79,2
DA:80,2
DA:81,2
DA:83,2
DA:87,0
DA:91,0
DA:97,2
DA:98,2
DA:100,0
DA:108,0
DA:111,0
DA:114,0
DA:116,0
DA:119,0
DA:121,0
DA:125,0
DA:128,0
DA:130,0
DA:133,0
DA:135,0
DA:137,0
DA:141,0
DA:146,0
DA:151,0
DA:152,0
DA:154,2
DA:163,2
DA:166,2
DA:169,2
DA:172,2
DA:176,2
DA:181,2
DA:182,2
DA:185,2
DA:187,0
DA:190,2
DA:192,0
DA:195,2
DA:198,0
DA:200,2
DA:202,0
DA:203,0
DA:205,0
DA:207,0
DA:212,0
DA:215,0
DA:217,0
DA:219,0
DA:224,0
DA:231,2
DA:233,2
DA:234,2
DA:236,2
DA:238,0
DA:242,2
DA:244,2
DA:246,2
DA:252,0
DA:256,2
DA:258,2
DA:260,0
DA:269,0
DA:272,0
DA:275,0
DA:277,0
DA:280,0
DA:282,0
DA:287,0
DA:290,0
DA:292,0
DA:294,0
DA:296,0
DA:298,0
DA:302,0
DA:307,0
end_of_record
TN:
SF:/home/atcsol/git/JOSE_PHOTOSAT/uah_photsat_freertos/service_libraries/pus_services/pus_service12/src/pus_service12.c
FN:36,pus_service12_startup
FNDA:1,pus_service12_startup
FN:50,pus_service12_exec_tc
FNDA:4,pus_service12_exec_tc
FN:71,pus_service12_get_PMON_COUNT
FNDA:60,pus_service12_get_PMON_COUNT
FN:77,pus_service12_is_PMON_enabled
FNDA:960,pus_service12_is_PMON_enabled
FN:92,pus_service12_get_PMON_type
FNDA:85,pus_service12_get_PMON_type
FN:105,pus_service12_do_param_limits_monitoring
FNDA:0,pus_service12_do_param_limits_monitoring
FN:186,pus_service12_do_param_check_value_monitoring
FNDA:85,pus_service12_do_param_check_value_monitoring
DA:36,1
DA:38,17
DA:40,16
DA:44,1
DA:50,4
DA:52,4
DA:53,2
DA:54,2
DA:55,2
DA:56,0
DA:57,0
DA:58,0
DA:59,2
DA:60,2
DA:61,2
DA:62,0
DA:63,0
DA:64,0
DA:65,0
DA:66,0
DA:69,4
DA:71,60
DA:73,60
DA:77,960
DA:79,960
DA:81,960
DA:83,960
DA:85,105
DA:89,960
DA:92,85
DA:94,85
DA:96,85
DA:98,85
DA:101,85
DA:105,0
DA:108,0
DA:110,0
DA:113,0
DA:115,0
DA:116,0
DA:119,0
DA:121,0
DA:123,0
DA:125,0
DA:126,0
DA:129,0
DA:132,0
DA:135,0
DA:136,0
DA:137,0
DA:140,0
DA:143,0
DA:153,0
DA:155,0
DA:158,0
DA:160,0
DA:161,0
DA:164,0
DA:165,0
DA:170,0
DA:171,0
DA:183,0
DA:186,85
DA:189,85
DA:191,85
DA:194,85
DA:196,85
DA:197,85
DA:200,85
DA:202,85
DA:204,85
DA:207,85
DA:208,85
DA:209,85
DA:212,2
DA:214,2
DA:222,83
DA:224,83
DA:229,83
DA:230,83
DA:237,85
end_of_record
TN:
SF:/home/atcsol/git/JOSE_PHOTOSAT/uah_photsat_freertos/service_libraries/pus_services/pus_service12/src/aux_pus_service12_x_utils.c
FN:37,pus_service12_exec_TC_12_2_set_unchecked
FNDA:2,pus_service12_exec_TC_12_2_set_unchecked
FN:68,pus_service12_PID_is_out_of_high_limit
FNDA:0,pus_service12_PID_is_out_of_high_limit
FN:75,pus_service12_PID_is_out_of_low_limit
FNDA:0,pus_service12_PID_is_out_of_low_limit
FN:81,pus_service12_PID_has_expected_masked_value
FNDA:85,pus_service12_PID_has_expected_masked_value
FN:89,pus_service12_are_status_equal
FNDA:91,pus_service12_are_status_equal
FN:110,pus_service12_mng_param_out_of_high_limit
FNDA:0,pus_service12_mng_param_out_of_high_limit
FN:145,pus_service12_mng_param_out_of_low_limit
FNDA:0,pus_service12_mng_param_out_of_low_limit
FN:180,pus_service12_mng_param_unexpected_value
FNDA:2,pus_service12_mng_param_unexpected_value
FN:219,pus_service12_mng_new_status
FNDA:85,pus_service12_mng_new_status
FN:277,pus_service12_mng_is_valid_check_limit_def
FNDA:0,pus_service12_mng_is_valid_check_limit_def
FN:286,pus_service12_add_valid_mng_mon_def
FNDA:2,pus_service12_add_valid_mng_mon_def
FN:306,pus_service12_exec_TC_12_X_get_PMON_limit_check_def
FNDA:0,pus_service12_exec_TC_12_X_get_PMON_limit_check_def
FN:351,pus_service12_exec_TC_12_X_get_PMON_value_check_def
FNDA:2,pus_service12_exec_TC_12_X_get_PMON_value_check_def
FN:392,pus_service12_add_monitoring_transition
FNDA:6,pus_service12_add_monitoring_transition
DA:37,2
DA:40,2
DA:43,2
DA:44,0
DA:46,0
DA:48,0
DA:50,2
DA:52,2
DA:54,2
DA:55,0
DA:57,0
DA:61,2
DA:62,2
DA:66,2
DA:68,0
DA:71,0
DA:75,0
DA:78,0
DA:81,85
DA:84,85
DA:89,91
DA:92,91
DA:94,91
DA:96,0
DA:97,0
DA:98,0
DA:99,91
DA:100,91
DA:101,91
DA:102,0
DA:103,0
DA:106,91
DA:110,0
DA:114,0
DA:117,0
DA:121,0
DA:123,0
DA:125,0
DA:128,0
DA:132,0
DA:133,0
DA:135,0
DA:137,0
DA:142,0
DA:145,0
DA:149,0
DA:152,0
DA:156,0
DA:158,0
DA:160,0
DA:163,0
DA:167,0
DA:168,0
DA:170,0
DA:172,0
DA:177,0
DA:180,2
DA:184,2
DA:187,2
DA:191,2
DA:193,2
DA:195,2
DA:198,2
DA:201,2
DA:205,2
DA:206,2
DA:208,2
DA:210,2
DA:215,2
DA:219,85
DA:224,85
DA:227,85
DA:232,85
DA:236,6
DA:239,0
DA:246,6
DA:247,6
DA:248,6
DA:252,6
DA:254,6
DA:258,6
DA:260,6
DA:262,6
DA:268,79
DA:269,79
DA:274,85
DA:277,0
DA:280,0
DA:282,0
DA:286,2
DA:289,2
DA:291,2
DA:293,2
DA:295,2
DA:297,2
DA:299,2
DA:303,2
DA:306,0
DA:310,0
DA:319,0
DA:321,0
DA:324,0
DA:328,0
DA:333,0
DA:337,0
DA:340,0
DA:345,0
DA:348,0
DA:351,2
DA:355,2
DA:364,2
DA:366,2
DA:369,2
DA:373,2
DA:377,2
DA:381,2
DA:386,2
DA:389,2
DA:392,6
DA:398,6
DA:401,6
DA:403,6
DA:405,6
DA:407,6
DA:408,6
DA:410,6
DA:412,6
DA:413,6
DA:415,6
DA:418,6
DA:421,6
DA:423,6
DA:427,6
DA:429,6
DA:432,6
DA:433,6
DA:436,6
DA:439,6
DA:441,6
DA:443,6
DA:448,6
end_of_record
TN:
SF:/home/atcsol/git/JOSE_PHOTOSAT/uah_photsat_freertos/service_libraries/pus_services/pus_service09/src/aux_pus_sevice9_exec_tc.c
FN:32,pus_service9_exec_TC_9_129
FNDA:0,pus_service9_exec_TC_9_129
DA:32,0
DA:39,0
DA:41,0
DA:44,0
DA:48,0
DA:49,0
DA:50,0
DA:55,0
DA:57,0
end_of_record
TN:
SF:/home/atcsol/git/JOSE_PHOTOSAT/uah_photsat_freertos/service_libraries/pus_services/pus_service09/src/pus_service9.c
FN:39,pus_service9_exec_tc
FNDA:0,pus_service9_exec_tc
DA:39,0
DA:41,0
DA:42,0
DA:43,0
DA:44,0
DA:45,0
DA:46,0
DA:51,0
end_of_record
TN:
SF:/home/atcsol/git/JOSE_PHOTOSAT/uah_photsat_freertos/service_libraries/pus_services/pus_service17/src/pus_service17.c
FN:38,pus_service17_exec_tc
FNDA:0,pus_service17_exec_tc
FN:50,pus_service17_exec_TC_17_1
FNDA:0,pus_service17_exec_TC_17_1
DA:38,0
DA:40,0
DA:41,0
DA:42,0
DA:43,0
DA:44,0
DA:45,0
DA:48,0
DA:50,0
DA:54,0
DA:57,0
DA:60,0
DA:64,0
DA:65,0
end_of_record
TN:
SF:/home/atcsol/git/JOSE_PHOTOSAT/uah_photsat_freertos/service_libraries/pus_services/pus_service17/src/aux_pus_service17_exec_tc.c
FN:39,pus_service17_tx_TM_17_2
FNDA:0,pus_service17_tx_TM_17_2
DA:39,0
DA:45,0
DA:47,0
DA:50,0
DA:53,0
DA:56,0
end_of_record
TN:
SF:/home/atcsol/git/JOSE_PHOTOSAT/uah_photsat_freertos/service_libraries/pus_services/pus_service19/src/aux_pus_service19_exec_tc.c
FN:34,pus_service19_exec_TC_19_1
FNDA:1,pus_service19_exec_TC_19_1
FN:140,pus_service19_exec_TC_19_2
FNDA:0,pus_service19_exec_TC_19_2
FN:214,pus_service19_exec_TC_19_4
FNDA:1,pus_service19_exec_TC_19_4
FN:277,pus_service19_exec_TC_19_5
FNDA:0,pus_service19_exec_TC_19_5
DA:34,1
DA:42,1
DA:45,1
DA:47,1
DA:50,0
DA:54,1
DA:56,0
DA:61,1
DA:63,0
DA:71,1
DA:74,1
DA:76,0
DA:78,0
DA:81,0
DA:85,1
DA:91,1
DA:94,1
DA:97,1
DA:100,1
DA:102,1
DA:104,1
DA:105,1
DA:108,1
DA:110,1
DA:112,1
DA:114,1
DA:116,1
DA:120,0
DA:126,0
DA:136,1
DA:138,1
DA:140,0
DA:148,0
DA:151,0
DA:153,0
DA:156,0
DA:160,0
DA:162,0
DA:167,0
DA:169,0
DA:177,0
DA:180,0
DA:182,0
DA:184,0
DA:187,0
DA:191,0
DA:193,0
DA:195,0
DA:201,0
DA:210,0
DA:212,0
DA:214,1
DA:222,1
DA:225,1
DA:227,1
DA:230,0
DA:234,1
DA:236,0
DA:241,1
DA:243,0
DA:251,1
DA:254,1
DA:256,1
DA:258,1
DA:260,1
DA:264,0
DA:273,1
DA:275,1
DA:277,0
DA:285,0
DA:288,0
DA:290,0
DA:293,0
DA:297,0
DA:299,0
DA:304,0
DA:306,0
DA:314,0
DA:317,0
DA:319,0
DA:321,0
DA:323,0
DA:327,0
DA:336,0
DA:338,0
end_of_record
TN:
SF:/home/atcsol/git/JOSE_PHOTOSAT/uah_photsat_freertos/service_libraries/pus_services/pus_service19/src/aux_pus_service19_utils.c
FN:70,pus_service19_pending_ev_5_1_actions
FNDA:60,pus_service19_pending_ev_5_1_actions
FN:75,pus_service19_pending_ev_5_2_actions
FNDA:60,pus_service19_pending_ev_5_2_actions
FN:80,pus_service19_pending_ev_5_3_actions
FNDA:60,pus_service19_pending_ev_5_3_actions
FN:86,pus_service19_pending_ev_5_4_actions
FNDA:62,pus_service19_pending_ev_5_4_actions
FN:93,pus_service19_is_ev_action_defined
FNDA:4,pus_service19_is_ev_action_defined
FN:109,pus_service19_disable_ev_action
FNDA:1,pus_service19_disable_ev_action
FN:126,pus_service19_enable_ev_action
FNDA:1,pus_service19_enable_ev_action
FN:144,pus_service19_delete_ev_action
FNDA:0,pus_service19_delete_ev_action
FN:164,pus_service19_get_free_ev_action_id
FNDA:1,pus_service19_get_free_ev_action_id
FN:181,pus_service19_get_ev_action
FNDA:2,pus_service19_get_ev_action
FN:213,pus_service19_set_ev_action
FNDA:1,pus_service19_set_ev_action
FN:244,pus_service19_add_ev_action_to_queue
FNDA:2,pus_service19_add_ev_action_to_queue
FN:309,pus_service19_extract_ev_action_from_queue
FNDA:2,pus_service19_extract_ev_action_from_queue
FN:355,pus_service19_extract_ev_5_1_action
FNDA:0,pus_service19_extract_ev_5_1_action
FN:359,pus_service19_extract_ev_5_2_action
FNDA:0,pus_service19_extract_ev_5_2_action
FN:365,pus_service19_extract_ev_5_3_action
FNDA:0,pus_service19_extract_ev_5_3_action
FN:369,pus_service19_extract_ev_5_4_action
FNDA:2,pus_service19_extract_ev_5_4_action
DA:70,60
DA:71,60
DA:75,60
DA:77,60
DA:80,60
DA:82,60
DA:86,62
DA:88,62
DA:93,4
DA:96,4
DA:98,4
DA:99,23
DA:100,19
DA:101,3
DA:102,3
DA:103,3
DA:106,4
DA:109,1
DA:112,1
DA:114,1
DA:116,1
DA:120,0
DA:123,1
DA:126,1
DA:129,1
DA:131,1
DA:133,1
DA:137,0
DA:140,1
DA:144,0
DA:147,0
DA:149,0
DA:151,0
DA:152,0
DA:156,0
DA:159,0
DA:164,1
DA:166,1
DA:167,1
DA:168,1
DA:169,2
DA:170,1
DA:171,1
DA:172,1
DA:173,1
DA:176,1
DA:181,2
DA:186,2
DA:188,0
DA:190,2
DA:192,0
DA:198,2
DA:200,2
DA:202,28
DA:204,26
DA:205,26
DA:209,2
DA:213,1
DA:219,1
DA:221,0
DA:223,1
DA:225,0
DA:229,1
DA:231,1
DA:233,14
DA:234,13
DA:235,13
DA:240,1
DA:244,2
DA:247,2
DA:249,2
DA:251,2
DA:253,0
DA:256,2
DA:258,2
DA:260,0
DA:261,0
DA:262,0
DA:263,0
DA:264,0
DA:265,0
DA:266,0
DA:267,0
DA:268,0
DA:270,2
DA:271,2
DA:272,2
DA:273,0
DA:274,0
DA:275,0
DA:280,2
DA:282,2
DA:288,2
DA:289,2
DA:290,2
DA:292,2
DA:295,2
DA:296,2
DA:297,2
DA:301,0
DA:306,2
DA:309,2
DA:311,2
DA:313,2
DA:314,0
DA:315,2
DA:316,0
DA:317,2
DA:318,0
DA:319,2
DA:320,0
DA:328,2
DA:331,2
DA:334,28
DA:336,26
DA:337,26
DA:341,2
DA:344,2
DA:345,2
DA:348,2
DA:352,2
DA:355,0
DA:356,0
DA:359,0
DA:361,0
DA:365,0
DA:366,0
DA:369,2
DA:371,2
end_of_record
TN:
SF:/home/atcsol/git/JOSE_PHOTOSAT/uah_photsat_freertos/service_libraries/pus_services/pus_service19/src/pus_service19.c
FN:31,pus_service19_mng_event_action
FNDA:2,pus_service19_mng_event_action
FN:50,pus_service19_pending_ev_actions
FNDA:60,pus_service19_pending_ev_actions
FN:58,pus_service19_extract_next_ev_action
FNDA:2,pus_service19_extract_next_ev_action
FN:94,pus_service19_exec_tc
FNDA:2,pus_service19_exec_tc
DA:31,2
DA:39,2
DA:43,2
DA:45,2
DA:48,2
DA:50,60
DA:52,60
DA:53,60
DA:54,60
DA:55,60
DA:58,2
DA:60,2
DA:61,2
DA:64,2
DA:66,2
DA:68,0
DA:70,0
DA:72,0
DA:74,0
DA:76,0
DA:78,0
DA:82,0
DA:83,0
DA:84,0
DA:88,0
DA:91,2
DA:94,2
DA:95,2
DA:96,1
DA:97,1
DA:98,1
DA:99,0
DA:100,0
DA:101,0
DA:102,1
DA:103,1
DA:104,1
DA:105,0
DA:106,0
DA:107,0
DA:109,0
DA:110,0
DA:113,2
end_of_record
TN:
SF:/home/atcsol/git/JOSE_PHOTOSAT/uah_photsat_freertos/service_libraries/pus_services/pus_sys_data_pool/src/pus_sys_data_pool.c
FN:62,sys_data_pool_is_PID_valid
FNDA:2,sys_data_pool_is_PID_valid
FN:68,sys_data_pool_item_type
FNDA:7024,sys_data_pool_item_type
FN:89,sys_data_pool_item_type_size
FNDA:2,sys_data_pool_item_type_size
FN:115,sys_data_pool_PID_size
FNDA:0,sys_data_pool_PID_size
FN:123,sys_data_pool_is_PID_update_via_TC_enabled
FNDA:0,sys_data_pool_is_PID_update_via_TC_enabled
FN:152,sys_data_pool_get_int16_param
FNDA:2640,sys_data_pool_get_int16_param
FN:163,sys_data_pool_get_uint8_param
FNDA:190,sys_data_pool_get_uint8_param
FN:174,sys_data_pool_get_uint32_param
FNDA:0,sys_data_pool_get_uint32_param
FN:184,sys_data_pool_get_param_value
FNDA:85,sys_data_pool_get_param_value
FN:224,sys_data_pool_set_param_from_serialized_bytes
FNDA:0,sys_data_pool_set_param_from_serialized_bytes
FN:265,sys_data_pool_set_item_from_serialized_bytes
FNDA:4,sys_data_pool_set_item_from_serialized_bytes
FN:304,sys_data_pool_set_uint8_param
FNDA:1201,sys_data_pool_set_uint8_param
FN:316,sys_data_pool_set_int16_param
FNDA:1208,sys_data_pool_set_int16_param
FN:328,sys_data_pool_set_uint32_param
FNDA:305,sys_data_pool_set_uint32_param
FN:340,sys_data_pool_item1_higher_than_item2
FNDA:0,sys_data_pool_item1_higher_than_item2
FN:377,sys_data_pool_param_higher_than_limit
FNDA:0,sys_data_pool_param_higher_than_limit
FN:415,sys_data_pool_param_lower_than_limit
FNDA:0,sys_data_pool_param_lower_than_limit
FN:453,sys_data_pool_param_update_mean
FNDA:0,sys_data_pool_param_update_mean
FN:503,sys_data_pool_masked_param_equal_than_masked_item
FNDA:85,sys_data_pool_masked_param_equal_than_masked_item
DA:62,2
DA:64,2
DA:68,7024
DA:72,7024
DA:74,305
DA:76,6719
DA:78,2151
DA:79,4568
DA:81,4568
DA:83,0
DA:85,7024
DA:89,2
DA:91,2
DA:93,2
DA:95,0
DA:96,0
DA:97,0
DA:99,2
DA:100,2
DA:101,2
DA:103,0
DA:104,0
DA:105,0
DA:106,0
DA:108,0
DA:109,0
DA:111,2
DA:115,0
DA:118,0
DA:119,0
DA:123,0
DA:127,0
DA:131,0
DA:133,0
DA:134,0
DA:135,0
DA:136,0
DA:138,0
DA:139,0
DA:140,0
DA:142,0
DA:144,0
DA:148,0
DA:152,2640
DA:154,2640
DA:156,2640
DA:157,2640
DA:159,2640
DA:163,190
DA:165,190
DA:167,190
DA:168,190
DA:170,190
DA:174,0
DA:176,0
DA:178,0
DA:179,0
DA:181,0
DA:184,85
DA:188,85
DA:189,0
DA:196,85
DA:198,85
DA:200,0
DA:201,0
DA:202,0
DA:204,85
DA:205,85
DA:206,85
DA:208,0
DA:209,0
DA:210,0
DA:212,0
DA:214,0
DA:215,0
DA:220,85
DA:224,0
DA:227,0
DA:229,0
DA:230,0
DA:237,0
DA:239,0
DA:241,0
DA:242,0
DA:243,0
DA:245,0
DA:246,0
DA:247,0
DA:249,0
DA:250,0
DA:251,0
DA:253,0
DA:255,0
DA:256,0
DA:261,0
DA:265,4
DA:271,4
DA:272,0
DA:274,4
DA:276,0
DA:279,4
DA:280,0
DA:282,0
DA:283,0
DA:285,4
DA:286,4
DA:287,4
DA:288,0
DA:289,0
DA:290,0
DA:293,0
DA:295,0
DA:296,0
DA:301,4
DA:304,1201
DA:307,1201
DA:308,1201
DA:310,1201
DA:311,1201
DA:313,1201
DA:316,1208
DA:319,1208
DA:320,1208
DA:322,1208
DA:323,1208
DA:325,1208
DA:328,305
DA:331,305
DA:332,305
DA:334,305
DA:335,305
DA:337,305
DA:340,0
DA:344,0
DA:346,0
DA:350,0
DA:352,0
DA:353,0
DA:355,0
DA:357,0
DA:358,0
DA:359,0
DA:360,0
DA:361,0
DA:363,0
DA:364,0
DA:367,0
DA:373,0
DA:377,0
DA:380,0
DA:382,0
DA:385,0
DA:387,0
DA:389,0
DA:390,0
DA:392,0
DA:394,0
DA:395,0
DA:397,0
DA:399,0
DA:400,0
DA:402,0
DA:403,0
DA:406,0
DA:412,0
DA:415,0
DA:418,0
DA:420,0
DA:423,0
DA:425,0
DA:427,0
DA:428,0
DA:430,0
DA:432,0
DA:433,0
DA:435,0
DA:436,0
DA:437,0
DA:439,0
DA:440,0
DA:443,0
DA:449,0
DA:453,0
DA:456,0
DA:458,0
DA:461,0
DA:463,0
DA:465,0
DA:467,0
DA:468,0
DA:469,0
DA:471,0
DA:473,0
DA:475,0
DA:476,0
DA:477,0
DA:480,0
DA:482,0
DA:483,0
DA:484,0
DA:487,0
DA:488,0
DA:490,0
DA:491,0
DA:496,0
DA:499,0
DA:503,85
DA:507,85
DA:509,85
DA:512,85
DA:514,85
DA:516,0
DA:518,0
DA:519,0
DA:521,0
DA:523,0
DA:525,0
DA:527,0
DA:529,0
DA:531,0
DA:533,0
DA:535,0
DA:537,85
DA:539,85
DA:541,85
DA:543,85
DA:545,85
DA:546,0
DA:549,0
DA:555,85
end_of_record
TN:
SF:/home/atcsol/git/JOSE_PHOTOSAT/uah_photsat_freertos/service_libraries/pus_services/pus_service01/src/pus_service1.c
FN:36,pus_service1_tc_acceptation
FNDA:10,pus_service1_tc_acceptation
FN:197,pus_service1_tx_TM_1_1
FNDA:9,pus_service1_tx_TM_1_1
FN:209,pus_service1_tx_TM_1_2
FNDA:0,pus_service1_tx_TM_1_2
FN:244,pus_service1_tx_TM_1_3
FNDA:11,pus_service1_tx_TM_1_3
FN:258,pus_service1_tx_TM_1_7
FNDA:11,pus_service1_tx_TM_1_7
DA:36,10
DA:43,10
DA:46,10
DA:50,10
DA:54,10
DA:55,10
DA:57,0
DA:59,10
DA:60,10
DA:63,0
DA:65,10
DA:67,0
DA:69,10
DA:71,0
DA:76,10
DA:78,10
DA:79,0
DA:80,0
DA:81,0
DA:82,0
DA:83,0
DA:84,0
DA:86,0
DA:87,0
DA:88,0
DA:89,0
DA:90,0
DA:91,0
DA:92,0
DA:94,0
DA:95,0
DA:96,0
DA:97,0
DA:98,0
DA:100,0
DA:101,0
DA:103,0
DA:104,0
DA:105,0
DA:106,0
DA:109,0
DA:111,0
DA:112,0
DA:114,0
DA:115,0
DA:116,0
DA:117,0
DA:120,0
DA:121,0
DA:122,0
DA:124,0
DA:126,0
DA:127,0
DA:128,0
DA:130,0
DA:131,0
DA:132,0
DA:134,0
DA:135,4
DA:136,4
DA:137,4
DA:141,4
DA:142,0
DA:143,0
DA:145,4
DA:146,2
DA:147,2
DA:148,2
DA:152,2
DA:153,0
DA:154,0
DA:156,2
DA:157,0
DA:158,0
DA:159,0
DA:161,0
DA:163,0
DA:164,0
DA:166,0
DA:167,1
DA:168,1
DA:169,1
DA:170,1
DA:172,0
DA:173,0
DA:175,1
DA:177,3
DA:178,3
DA:179,3
DA:182,3
DA:183,0
DA:185,0
DA:186,0
DA:193,10
DA:197,9
DA:199,9
DA:201,9
DA:203,9
DA:206,9
DA:209,0
DA:212,0
DA:219,0
DA:221,0
DA:224,0
DA:227,0
DA:231,0
DA:233,0
DA:237,0
DA:240,0
DA:244,11
DA:246,11
DA:249,11
DA:251,11
DA:254,11
DA:258,11
DA:260,11
DA:263,11
DA:265,11
DA:268,11
end_of_record
TN:
SF:/home/atcsol/git/JOSE_PHOTOSAT/uah_photsat_freertos/service_libraries/pus_services/pus_service01/src/aux_pus_service1_x_utils.c
FN:35,pus_service1_build_TM_1_2_failure_notice
FNDA:0,pus_service1_build_TM_1_2_failure_notice
FN:118,pus_service1_build_TM_1_X_reqID
FNDA:31,pus_service1_build_TM_1_X_reqID
FN:140,pus_service1_tx_TM_1_X_reqID
FNDA:31,pus_service1_tx_TM_1_X_reqID
FN:167,pus_service1_failure_tc_subtype
FNDA:0,pus_service1_failure_tc_subtype
FN:194,pus_service1_tx_TM_1_X_no_failure_data
FNDA:0,pus_service1_tx_TM_1_X_no_failure_data
FN:228,pus_service1_tx_TM_1_X_uint8_failure_data
FNDA:0,pus_service1_tx_TM_1_X_uint8_failure_data
FN:269,pus_service1_tx_TM_1_X_uint16_failure_data
FNDA:0,pus_service1_tx_TM_1_X_uint16_failure_data
FN:309,pus_service1_tx_TM_1_X_uint32_failure_data
FNDA:0,pus_service1_tx_TM_1_X_uint32_failure_data
FN:349,pus_service1_tx_TM_1_X_uint8_uint32_failure_data
FNDA:0,pus_service1_tx_TM_1_X_uint8_uint32_failure_data
DA:35,0
DA:38,0
DA:40,0
DA:42,0
DA:44,0
DA:47,0
DA:51,0
DA:52,0
DA:55,0
DA:56,0
DA:58,0
DA:60,0
DA:63,0
DA:66,0
DA:68,0
DA:71,0
DA:75,0
DA:76,0
DA:78,0
DA:80,0
DA:83,0
DA:87,0
DA:88,0
DA:90,0
DA:92,0
DA:95,0
DA:99,0
DA:100,0
DA:102,0
DA:104,0
DA:106,0
DA:107,0
DA:112,0
DA:115,0
DA:118,31
DA:121,31
DA:123,31
DA:126,31
DA:127,31
DA:130,31
DA:131,31
DA:134,0
DA:136,31
DA:140,31
DA:143,31
DA:148,31
DA:150,31
DA:153,31
DA:156,31
DA:158,31
DA:161,31
DA:164,31
DA:167,0
DA:171,0
DA:173,0
DA:174,0
DA:175,0
DA:176,0
DA:177,0
DA:178,0
DA:180,0
DA:181,0
DA:182,0
DA:184,0
DA:185,0
DA:186,0
DA:190,0
DA:194,0
DA:197,0
DA:201,0
DA:206,0
DA:208,0
DA:211,0
DA:214,0
DA:217,0
DA:219,0
DA:223,0
DA:225,0
DA:228,0
DA:231,0
DA:235,0
DA:240,0
DA:242,0
DA:245,0
DA:248,0
DA:252,0
DA:256,0
DA:258,0
DA:262,0
DA:264,0
DA:269,0
DA:272,0
DA:276,0
DA:281,0
DA:283,0
DA:286,0
DA:289,0
DA:293,0
DA:297,0
DA:299,0
DA:303,0
DA:305,0
DA:309,0
DA:312,0
DA:316,0
DA:321,0
DA:323,0
DA:326,0
DA:329,0
DA:333,0
DA:337,0
DA:339,0
DA:343,0
DA:345,0
DA:349,0
DA:352,0
DA:356,0
DA:361,0
DA:363,0
DA:366,0
DA:369,0
DA:373,0
DA:377,0
DA:381,0
DA:383,0
DA:387,0
DA:389,0
end_of_record
TN:
SF:/home/atcsol/git/JOSE_PHOTOSAT/uah_photsat_freertos/service_libraries/pus_services/pus_service01/src/pus_service_1_x_tc_x_x.c
FN:36,pus_service1_tx_TM_1_4_short_pack_length
FNDA:0,pus_service1_tx_TM_1_4_short_pack_length
FN:44,pus_service1_tx_TM_1_4_num_of_instr_not_valid
FNDA:0,pus_service1_tx_TM_1_4_num_of_instr_not_valid
FN:52,pus_service1_tx_TM_1_4_device_address_not_valid
FNDA:0,pus_service1_tx_TM_1_4_device_address_not_valid
FN:60,pus_service1_tx_TM_1_4_SID_not_valid
FNDA:0,pus_service1_tx_TM_1_4_SID_not_valid
FN:71,pus_service1_tx_TM_1_4_mem_address_not_valid
FNDA:0,pus_service1_tx_TM_1_4_mem_address_not_valid
FN:80,pus_service1_tx_TM_1_4_mem_id_read_only
FNDA:0,pus_service1_tx_TM_1_4_mem_id_read_only
FN:87,pus_service1_tx_TM_1_4_EvID_not_valid
FNDA:0,pus_service1_tx_TM_1_4_EvID_not_valid
FN:95,pus_service1_tx_TM_1_4_PID_not_valid
FNDA:0,pus_service1_tx_TM_1_4_PID_not_valid
FN:103,pus_service1_tx_TM_1_4_PMON_undefined
FNDA:0,pus_service1_tx_TM_1_4_PMON_undefined
FN:111,pus_service1_tx_TM_1_4_PMON_defined
FNDA:0,pus_service1_tx_TM_1_4_PMON_defined
FN:119,pus_service1_tx_TM_1_4_PMON_enabled
FNDA:0,pus_service1_tx_TM_1_4_PMON_enabled
FN:127,pus_service1_tx_TM_1_4_PMONID_invalid
FNDA:0,pus_service1_tx_TM_1_4_PMONID_invalid
FN:135,pus_service1_tx_TM_1_4_PMON_definition_invalid
FNDA:0,pus_service1_tx_TM_1_4_PMON_definition_invalid
FN:144,pus_service1_tx_TM_1_4_EvAction_enabled
FNDA:0,pus_service1_tx_TM_1_4_EvAction_enabled
FN:152,pus_service1_tx_TM_1_4_EvAction_rejected
FNDA:0,pus_service1_tx_TM_1_4_EvAction_rejected
FN:159,pus_service1_tx_TM_1_4_EvAction_undefined
FNDA:0,pus_service1_tx_TM_1_4_EvAction_undefined
FN:168,pus_service1_tx_TM_1_4_PID_read_only_via_TC_20_X
FNDA:0,pus_service1_tx_TM_1_4_PID_read_only_via_TC_20_X
FN:177,pus_service1_tx_TM_1_4_Invalid_129_1_Observation
FNDA:0,pus_service1_tx_TM_1_4_Invalid_129_1_Observation
FN:186,pus_service1_tx_TM_1_4_Invalid_129_2_Kp_Ki_Kd
FNDA:0,pus_service1_tx_TM_1_4_Invalid_129_2_Kp_Ki_Kd
FN:197,pus_service1_tx_TM_1_8_Max_EvActions_defined
FNDA:0,pus_service1_tx_TM_1_8_Max_EvActions_defined
FN:205,pus_service1_tx_TM_1_8_exceed_limit_appdata
FNDA:0,pus_service1_tx_TM_1_8_exceed_limit_appdata
FN:213,pus_service1_tx_TM_1_8_dev_comman_exec_error
FNDA:0,pus_service1_tx_TM_1_8_dev_comman_exec_error
FN:222,pus_service1_tx_TM_1_8_not_free_stats_config
FNDA:0,pus_service1_tx_TM_1_8_not_free_stats_config
FN:230,pus_service1_tx_TM_1_8_PID_stats_undefined
FNDA:0,pus_service1_tx_TM_1_8_PID_stats_undefined
FN:238,pus_service1_tx_TM_1_8_mem_access_error
FNDA:0,pus_service1_tx_TM_1_8_mem_access_error
DA:36,0
DA:38,0
DA:40,0
DA:44,0
DA:47,0
DA:52,0
DA:55,0
DA:60,0
DA:63,0
DA:71,0
DA:74,0
DA:80,0
DA:83,0
DA:87,0
DA:90,0
DA:95,0
DA:98,0
DA:103,0
DA:106,0
DA:111,0
DA:114,0
DA:119,0
DA:122,0
DA:127,0
DA:130,0
DA:135,0
DA:138,0
DA:144,0
DA:147,0
DA:152,0
DA:154,0
DA:159,0
DA:162,0
DA:168,0
DA:171,0
DA:177,0
DA:179,0
DA:183,0
DA:186,0
DA:188,0
DA:192,0
DA:197,0
DA:200,0
DA:205,0
DA:208,0
DA:213,0
DA:216,0
DA:222,0
DA:225,0
DA:230,0
DA:233,0
DA:238,0
DA:241,0
end_of_record
